
pj2.elf:     file format elf32-avr

Sections:
Idx Name          Size      VMA       LMA       File off  Algn
  0 .text         00000f7e  00000000  00000000  00000094  2**1
                  CONTENTS, ALLOC, LOAD, READONLY, CODE
  1 .data         000000a4  00800060  00000f7e  00001012  2**0
                  CONTENTS, ALLOC, LOAD, DATA
  2 .bss          0000000d  00800104  00800104  000010b6  2**0
                  ALLOC
  3 .comment      0000005c  00000000  00000000  000010b6  2**0
                  CONTENTS, READONLY
  4 .note.gnu.avr.deviceinfo 0000003c  00000000  00000000  00001114  2**2
                  CONTENTS, READONLY
  5 .debug_aranges 00000098  00000000  00000000  00001150  2**0
                  CONTENTS, READONLY, DEBUGGING
  6 .debug_info   00000f40  00000000  00000000  000011e8  2**0
                  CONTENTS, READONLY, DEBUGGING
  7 .debug_abbrev 00000746  00000000  00000000  00002128  2**0
                  CONTENTS, READONLY, DEBUGGING
  8 .debug_line   00000863  00000000  00000000  0000286e  2**0
                  CONTENTS, READONLY, DEBUGGING
  9 .debug_frame  0000019c  00000000  00000000  000030d4  2**2
                  CONTENTS, READONLY, DEBUGGING
 10 .debug_str    0000044f  00000000  00000000  00003270  2**0
                  CONTENTS, READONLY, DEBUGGING
 11 .debug_loc    00000977  00000000  00000000  000036bf  2**0
                  CONTENTS, READONLY, DEBUGGING
 12 .debug_ranges 00000088  00000000  00000000  00004036  2**0
                  CONTENTS, READONLY, DEBUGGING

Disassembly of section .text:

00000000 <__vectors>:
   0:	0c 94 2a 00 	jmp	0x54	; 0x54 <__ctors_end>
   4:	0c 94 47 00 	jmp	0x8e	; 0x8e <__bad_interrupt>
   8:	0c 94 47 00 	jmp	0x8e	; 0x8e <__bad_interrupt>
   c:	0c 94 47 00 	jmp	0x8e	; 0x8e <__bad_interrupt>
  10:	0c 94 47 00 	jmp	0x8e	; 0x8e <__bad_interrupt>
  14:	0c 94 47 00 	jmp	0x8e	; 0x8e <__bad_interrupt>
  18:	0c 94 47 00 	jmp	0x8e	; 0x8e <__bad_interrupt>
  1c:	0c 94 47 00 	jmp	0x8e	; 0x8e <__bad_interrupt>
  20:	0c 94 47 00 	jmp	0x8e	; 0x8e <__bad_interrupt>
  24:	0c 94 47 00 	jmp	0x8e	; 0x8e <__bad_interrupt>
  28:	0c 94 47 00 	jmp	0x8e	; 0x8e <__bad_interrupt>
  2c:	0c 94 47 00 	jmp	0x8e	; 0x8e <__bad_interrupt>
  30:	0c 94 47 00 	jmp	0x8e	; 0x8e <__bad_interrupt>
  34:	0c 94 47 00 	jmp	0x8e	; 0x8e <__bad_interrupt>
  38:	0c 94 47 00 	jmp	0x8e	; 0x8e <__bad_interrupt>
  3c:	0c 94 47 00 	jmp	0x8e	; 0x8e <__bad_interrupt>
  40:	0c 94 47 00 	jmp	0x8e	; 0x8e <__bad_interrupt>
  44:	0c 94 47 00 	jmp	0x8e	; 0x8e <__bad_interrupt>
  48:	0c 94 47 00 	jmp	0x8e	; 0x8e <__bad_interrupt>
  4c:	0c 94 47 00 	jmp	0x8e	; 0x8e <__bad_interrupt>
  50:	0c 94 47 00 	jmp	0x8e	; 0x8e <__bad_interrupt>

00000054 <__ctors_end>:
  54:	11 24       	eor	r1, r1
  56:	1f be       	out	0x3f, r1	; 63
  58:	cf e5       	ldi	r28, 0x5F	; 95
  5a:	d4 e0       	ldi	r29, 0x04	; 4
  5c:	de bf       	out	0x3e, r29	; 62
  5e:	cd bf       	out	0x3d, r28	; 61

00000060 <__do_copy_data>:
  60:	11 e0       	ldi	r17, 0x01	; 1
  62:	a0 e6       	ldi	r26, 0x60	; 96
  64:	b0 e0       	ldi	r27, 0x00	; 0
  66:	ee e7       	ldi	r30, 0x7E	; 126
  68:	ff e0       	ldi	r31, 0x0F	; 15
  6a:	02 c0       	rjmp	.+4      	; 0x70 <__do_copy_data+0x10>
  6c:	05 90       	lpm	r0, Z+
  6e:	0d 92       	st	X+, r0
  70:	a4 30       	cpi	r26, 0x04	; 4
  72:	b1 07       	cpc	r27, r17
  74:	d9 f7       	brne	.-10     	; 0x6c <__do_copy_data+0xc>

00000076 <__do_clear_bss>:
  76:	21 e0       	ldi	r18, 0x01	; 1
  78:	a4 e0       	ldi	r26, 0x04	; 4
  7a:	b1 e0       	ldi	r27, 0x01	; 1
  7c:	01 c0       	rjmp	.+2      	; 0x80 <.do_clear_bss_start>

0000007e <.do_clear_bss_loop>:
  7e:	1d 92       	st	X+, r1

00000080 <.do_clear_bss_start>:
  80:	a1 31       	cpi	r26, 0x11	; 17
  82:	b2 07       	cpc	r27, r18
  84:	e1 f7       	brne	.-8      	; 0x7e <.do_clear_bss_loop>
  86:	0e 94 31 02 	call	0x462	; 0x462 <main>
  8a:	0c 94 bd 07 	jmp	0xf7a	; 0xf7a <_exit>

0000008e <__bad_interrupt>:
  8e:	0c 94 00 00 	jmp	0	; 0x0 <__vectors>

00000092 <buttCheck>:
}
	
//tat con tro, nhap nhay con tro
void LCD_BlinkPointerPlus()
{
	LCD_SendCommand(0x0F);
  92:	86 b3       	in	r24, 0x16	; 22
  94:	8f 70       	andi	r24, 0x0F	; 15
  96:	8f 30       	cpi	r24, 0x0F	; 15
  98:	51 f0       	breq	.+20     	; 0xae <buttCheck+0x1c>
  9a:	b0 9b       	sbis	0x16, 0	; 22
  9c:	0a c0       	rjmp	.+20     	; 0xb2 <buttCheck+0x20>
  9e:	b1 9b       	sbis	0x16, 1	; 22
  a0:	0a c0       	rjmp	.+20     	; 0xb6 <buttCheck+0x24>
  a2:	b2 9b       	sbis	0x16, 2	; 22
  a4:	0a c0       	rjmp	.+20     	; 0xba <buttCheck+0x28>
  a6:	b3 9b       	sbis	0x16, 3	; 22
  a8:	0a c0       	rjmp	.+20     	; 0xbe <buttCheck+0x2c>
  aa:	80 e0       	ldi	r24, 0x00	; 0
  ac:	08 95       	ret
  ae:	80 e0       	ldi	r24, 0x00	; 0
  b0:	08 95       	ret
  b2:	81 e0       	ldi	r24, 0x01	; 1
  b4:	08 95       	ret
  b6:	82 e0       	ldi	r24, 0x02	; 2
  b8:	08 95       	ret
  ba:	83 e0       	ldi	r24, 0x03	; 3
  bc:	08 95       	ret
  be:	84 e0       	ldi	r24, 0x04	; 4
  c0:	08 95       	ret

000000c2 <ADC_Init>:
  c2:	1a ba       	out	0x1a, r1	; 26
  c4:	87 e8       	ldi	r24, 0x87	; 135
  c6:	86 b9       	out	0x06, r24	; 6
  c8:	80 e4       	ldi	r24, 0x40	; 64
  ca:	87 b9       	out	0x07, r24	; 7
  cc:	08 95       	ret

000000ce <ADC_Read>:
  ce:	87 70       	andi	r24, 0x07	; 7
  d0:	80 64       	ori	r24, 0x40	; 64
  d2:	87 b9       	out	0x07, r24	; 7
  d4:	86 b1       	in	r24, 0x06	; 6
  d6:	80 64       	ori	r24, 0x40	; 64
  d8:	86 b9       	out	0x06, r24	; 6
  da:	34 9b       	sbis	0x06, 4	; 6
  dc:	fe cf       	rjmp	.-4      	; 0xda <ADC_Read+0xc>
  de:	86 b1       	in	r24, 0x06	; 6
  e0:	80 61       	ori	r24, 0x10	; 16
  e2:	86 b9       	out	0x06, r24	; 6
  e4:	8f ec       	ldi	r24, 0xCF	; 207
  e6:	97 e0       	ldi	r25, 0x07	; 7
  e8:	01 97       	sbiw	r24, 0x01	; 1
  ea:	f1 f7       	brne	.-4      	; 0xe8 <ADC_Read+0x1a>
  ec:	00 c0       	rjmp	.+0      	; 0xee <ADC_Read+0x20>
  ee:	00 00       	nop
  f0:	84 b1       	in	r24, 0x04	; 4
  f2:	95 b1       	in	r25, 0x05	; 5
  f4:	08 95       	ret

000000f6 <LCD_Enable>:
  f6:	82 b3       	in	r24, 0x12	; 18
  f8:	80 68       	ori	r24, 0x80	; 128
  fa:	82 bb       	out	0x12, r24	; 18
  fc:	88 e0       	ldi	r24, 0x08	; 8
  fe:	8a 95       	dec	r24
 100:	f1 f7       	brne	.-4      	; 0xfe <LCD_Enable+0x8>
 102:	82 b3       	in	r24, 0x12	; 18
 104:	8f 77       	andi	r24, 0x7F	; 127
 106:	82 bb       	out	0x12, r24	; 18
 108:	85 e8       	ldi	r24, 0x85	; 133
 10a:	8a 95       	dec	r24
 10c:	f1 f7       	brne	.-4      	; 0x10a <LCD_Enable+0x14>
 10e:	00 00       	nop
 110:	08 95       	ret

00000112 <LCD_Send4Bit>:
 112:	80 ff       	sbrs	r24, 0
 114:	04 c0       	rjmp	.+8      	; 0x11e <LCD_Send4Bit+0xc>
 116:	95 b3       	in	r25, 0x15	; 21
 118:	90 61       	ori	r25, 0x10	; 16
 11a:	95 bb       	out	0x15, r25	; 21
 11c:	03 c0       	rjmp	.+6      	; 0x124 <LCD_Send4Bit+0x12>
 11e:	95 b3       	in	r25, 0x15	; 21
 120:	9f 7e       	andi	r25, 0xEF	; 239
 122:	95 bb       	out	0x15, r25	; 21
 124:	81 ff       	sbrs	r24, 1
 126:	04 c0       	rjmp	.+8      	; 0x130 <LCD_Send4Bit+0x1e>
 128:	95 b3       	in	r25, 0x15	; 21
 12a:	90 62       	ori	r25, 0x20	; 32
 12c:	95 bb       	out	0x15, r25	; 21
 12e:	03 c0       	rjmp	.+6      	; 0x136 <LCD_Send4Bit+0x24>
 130:	95 b3       	in	r25, 0x15	; 21
 132:	9f 7d       	andi	r25, 0xDF	; 223
 134:	95 bb       	out	0x15, r25	; 21
 136:	82 ff       	sbrs	r24, 2
 138:	04 c0       	rjmp	.+8      	; 0x142 <LCD_Send4Bit+0x30>
 13a:	95 b3       	in	r25, 0x15	; 21
 13c:	90 64       	ori	r25, 0x40	; 64
 13e:	95 bb       	out	0x15, r25	; 21
 140:	03 c0       	rjmp	.+6      	; 0x148 <LCD_Send4Bit+0x36>
 142:	95 b3       	in	r25, 0x15	; 21
 144:	9f 7b       	andi	r25, 0xBF	; 191
 146:	95 bb       	out	0x15, r25	; 21
 148:	83 ff       	sbrs	r24, 3
 14a:	04 c0       	rjmp	.+8      	; 0x154 <LCD_Send4Bit+0x42>
 14c:	85 b3       	in	r24, 0x15	; 21
 14e:	80 68       	ori	r24, 0x80	; 128
 150:	85 bb       	out	0x15, r24	; 21
 152:	08 95       	ret
 154:	85 b3       	in	r24, 0x15	; 21
 156:	8f 77       	andi	r24, 0x7F	; 127
 158:	85 bb       	out	0x15, r24	; 21
 15a:	08 95       	ret

0000015c <LCD_SendCommand>:
 15c:	cf 93       	push	r28
 15e:	c8 2f       	mov	r28, r24
 160:	82 95       	swap	r24
 162:	8f 70       	andi	r24, 0x0F	; 15
 164:	0e 94 89 00 	call	0x112	; 0x112 <LCD_Send4Bit>
 168:	0e 94 7b 00 	call	0xf6	; 0xf6 <LCD_Enable>
 16c:	8c 2f       	mov	r24, r28
 16e:	0e 94 89 00 	call	0x112	; 0x112 <LCD_Send4Bit>
 172:	0e 94 7b 00 	call	0xf6	; 0xf6 <LCD_Enable>
 176:	cf 91       	pop	r28
 178:	08 95       	ret

0000017a <LCD_Clear>:
 17a:	81 e0       	ldi	r24, 0x01	; 1
 17c:	0e 94 ae 00 	call	0x15c	; 0x15c <LCD_SendCommand>
 180:	8f e9       	ldi	r24, 0x9F	; 159
 182:	9f e0       	ldi	r25, 0x0F	; 15
 184:	01 97       	sbiw	r24, 0x01	; 1
 186:	f1 f7       	brne	.-4      	; 0x184 <LCD_Clear+0xa>
 188:	00 c0       	rjmp	.+0      	; 0x18a <LCD_Clear+0x10>
 18a:	00 00       	nop
 18c:	08 95       	ret

0000018e <LCD_Init>:
}
	
// Ham Khoi Tao LCD
void LCD_Init()
{
	LCD_Send4Bit(0x00); //turn on LCD
 18e:	80 e0       	ldi	r24, 0x00	; 0
 190:	0e 94 89 00 	call	0x112	; 0x112 <LCD_Send4Bit>
	#else
		//round up by default
		__ticks_dc = (uint32_t)(ceil(fabs(__tmp)));
	#endif

	__builtin_avr_delay_cycles(__ticks_dc);
 194:	8f e3       	ldi	r24, 0x3F	; 63
 196:	9c e9       	ldi	r25, 0x9C	; 156
 198:	01 97       	sbiw	r24, 0x01	; 1
 19a:	f1 f7       	brne	.-4      	; 0x198 <LCD_Init+0xa>
 19c:	00 c0       	rjmp	.+0      	; 0x19e <LCD_Init+0x10>
 19e:	00 00       	nop
	_delay_ms(20);
	PORTD &=~(0x01<<LCD_RS); //ghi vao IR
 1a0:	82 b3       	in	r24, 0x12	; 18
 1a2:	8f 7b       	andi	r24, 0xBF	; 191
 1a4:	82 bb       	out	0x12, r24	; 18
	PORTD &=~(0x01<<LCD_RW);
 1a6:	82 b3       	in	r24, 0x12	; 18
 1a8:	8f 7d       	andi	r24, 0xDF	; 223
 1aa:	82 bb       	out	0x12, r24	; 18
	LCD_Send4Bit(0x03); //function setting
 1ac:	83 e0       	ldi	r24, 0x03	; 3
 1ae:	0e 94 89 00 	call	0x112	; 0x112 <LCD_Send4Bit>
	LCD_Enable();
 1b2:	0e 94 7b 00 	call	0xf6	; 0xf6 <LCD_Enable>
 1b6:	8f e0       	ldi	r24, 0x0F	; 15
 1b8:	97 e2       	ldi	r25, 0x27	; 39
 1ba:	01 97       	sbiw	r24, 0x01	; 1
 1bc:	f1 f7       	brne	.-4      	; 0x1ba <LCD_Init+0x2c>
 1be:	00 c0       	rjmp	.+0      	; 0x1c0 <LCD_Init+0x32>
 1c0:	00 00       	nop
	_delay_ms(5);
	LCD_Enable();
 1c2:	0e 94 7b 00 	call	0xf6	; 0xf6 <LCD_Enable>
	#else
		//round up by default
		__ticks_dc = (uint32_t)(ceil(fabs(__tmp)));
	#endif

	__builtin_avr_delay_cycles(__ticks_dc);
 1c6:	87 ec       	ldi	r24, 0xC7	; 199
 1c8:	90 e0       	ldi	r25, 0x00	; 0
 1ca:	01 97       	sbiw	r24, 0x01	; 1
 1cc:	f1 f7       	brne	.-4      	; 0x1ca <LCD_Init+0x3c>
 1ce:	00 c0       	rjmp	.+0      	; 0x1d0 <LCD_Init+0x42>
 1d0:	00 00       	nop
	_delay_us(100);
	LCD_Enable();
 1d2:	0e 94 7b 00 	call	0xf6	; 0xf6 <LCD_Enable>
	LCD_Send4Bit(0x02); //di chuyen con tro ve dau man hnh
 1d6:	82 e0       	ldi	r24, 0x02	; 2
 1d8:	0e 94 89 00 	call	0x112	; 0x112 <LCD_Send4Bit>
	LCD_Enable();
 1dc:	0e 94 7b 00 	call	0xf6	; 0xf6 <LCD_Enable>
	LCD_SendCommand( 0x28 ); //lua chon che do 4 bit
 1e0:	88 e2       	ldi	r24, 0x28	; 40
 1e2:	0e 94 ae 00 	call	0x15c	; 0x15c <LCD_SendCommand>
	LCD_SendCommand( 0x0c); // bat hien thi va tat con tro di
 1e6:	8c e0       	ldi	r24, 0x0C	; 12
 1e8:	0e 94 ae 00 	call	0x15c	; 0x15c <LCD_SendCommand>
	LCD_SendCommand( 0x06 ); // tu dong di chuyen con tro
 1ec:	86 e0       	ldi	r24, 0x06	; 6
 1ee:	0e 94 ae 00 	call	0x15c	; 0x15c <LCD_SendCommand>
	LCD_Clear();
 1f2:	0e 94 bd 00 	call	0x17a	; 0x17a <LCD_Clear>
 1f6:	08 95       	ret

000001f8 <LCD_GotoXY>:
	
// set toa do hien thi
void LCD_GotoXY(unsigned char x, unsigned char y)
{
	unsigned char address;
	if(!y)address=(0x80+x);
 1f8:	61 11       	cpse	r22, r1
 1fa:	02 c0       	rjmp	.+4      	; 0x200 <__EEPROM_REGION_LENGTH__>
 1fc:	80 58       	subi	r24, 0x80	; 128
 1fe:	01 c0       	rjmp	.+2      	; 0x202 <__EEPROM_REGION_LENGTH__+0x2>
	else address=(0xc0+x);
 200:	80 54       	subi	r24, 0x40	; 64
	LCD_SendCommand(address);
 202:	0e 94 ae 00 	call	0x15c	; 0x15c <LCD_SendCommand>
 206:	08 95       	ret

00000208 <LCD_PutChar>:
}

void LCD_PutChar(unsigned char Data)
{
	PORTD |=(0x01<<LCD_RS); //keo RS len 1 de ghi vao DR
 208:	92 b3       	in	r25, 0x12	; 18
 20a:	90 64       	ori	r25, 0x40	; 64
 20c:	92 bb       	out	0x12, r25	; 18
	LCD_SendCommand(Data);
 20e:	0e 94 ae 00 	call	0x15c	; 0x15c <LCD_SendCommand>
	PORTD &=~(0x01<<LCD_RS);
 212:	82 b3       	in	r24, 0x12	; 18
 214:	8f 7b       	andi	r24, 0xBF	; 191
 216:	82 bb       	out	0x12, r24	; 18
 218:	08 95       	ret

0000021a <LCD_Puts>:
}

void LCD_Puts(char *s)
{
 21a:	cf 93       	push	r28
 21c:	df 93       	push	r29
 21e:	ec 01       	movw	r28, r24
	while (*s)
 220:	03 c0       	rjmp	.+6      	; 0x228 <LCD_Puts+0xe>
	{
		LCD_PutChar(*s);
 222:	0e 94 04 01 	call	0x208	; 0x208 <LCD_PutChar>
		s++;
 226:	21 96       	adiw	r28, 0x01	; 1
	PORTD &=~(0x01<<LCD_RS);
}

void LCD_Puts(char *s)
{
	while (*s)
 228:	88 81       	ld	r24, Y
 22a:	81 11       	cpse	r24, r1
 22c:	fa cf       	rjmp	.-12     	; 0x222 <LCD_Puts+0x8>
	{
		LCD_PutChar(*s);
		s++;
	}
}
 22e:	df 91       	pop	r29
 230:	cf 91       	pop	r28
 232:	08 95       	ret

00000234 <_leddon>:
#define LEDDON_H_

void _leddon(void);

void _leddon(void)
{
 234:	cf 93       	push	r28
 236:	df 93       	push	r29
 238:	cd b7       	in	r28, 0x3d	; 61
 23a:	de b7       	in	r29, 0x3e	; 62
 23c:	ee 97       	sbiw	r28, 0x3e	; 62
 23e:	0f b6       	in	r0, 0x3f	; 63
 240:	f8 94       	cli
 242:	de bf       	out	0x3e, r29	; 62
 244:	0f be       	out	0x3f, r0	; 63
 246:	cd bf       	out	0x3d, r28	; 61
	while (1)
	{
		unsigned int sangDan[] = {0x01, 0x03, 0x07, 0x0F, 0x1F, 0x3F, 0x7F, 0xFF};
 248:	80 e1       	ldi	r24, 0x10	; 16
 24a:	e0 e6       	ldi	r30, 0x60	; 96
 24c:	f0 e0       	ldi	r31, 0x00	; 0
 24e:	de 01       	movw	r26, r28
 250:	91 96       	adiw	r26, 0x21	; 33
 252:	01 90       	ld	r0, Z+
 254:	0d 92       	st	X+, r0
 256:	8a 95       	dec	r24
 258:	e1 f7       	brne	.-8      	; 0x252 <_leddon+0x1e>
		PORTD = 0xFF;
 25a:	8f ef       	ldi	r24, 0xFF	; 255
 25c:	82 bb       	out	0x12, r24	; 18
	#else
		//round up by default
		__ticks_dc = (uint32_t)(ceil(fabs(__tmp)));
	#endif

	__builtin_avr_delay_cycles(__ticks_dc);
 25e:	2f ef       	ldi	r18, 0xFF	; 255
 260:	30 e7       	ldi	r19, 0x70	; 112
 262:	42 e0       	ldi	r20, 0x02	; 2
 264:	21 50       	subi	r18, 0x01	; 1
 266:	30 40       	sbci	r19, 0x00	; 0
 268:	40 40       	sbci	r20, 0x00	; 0
 26a:	e1 f7       	brne	.-8      	; 0x264 <_leddon+0x30>
 26c:	00 c0       	rjmp	.+0      	; 0x26e <_leddon+0x3a>
 26e:	00 00       	nop
		_delay_ms(100);
		for (int i = 7; i>=0; i--)
 270:	87 e0       	ldi	r24, 0x07	; 7
 272:	90 e0       	ldi	r25, 0x00	; 0
 274:	15 c0       	rjmp	.+42     	; 0x2a0 <_leddon+0x6c>
		{
			PORTD = sangDan[i];
 276:	fc 01       	movw	r30, r24
 278:	ee 0f       	add	r30, r30
 27a:	ff 1f       	adc	r31, r31
 27c:	21 e0       	ldi	r18, 0x01	; 1
 27e:	30 e0       	ldi	r19, 0x00	; 0
 280:	2c 0f       	add	r18, r28
 282:	3d 1f       	adc	r19, r29
 284:	e2 0f       	add	r30, r18
 286:	f3 1f       	adc	r31, r19
 288:	20 a1       	ldd	r18, Z+32	; 0x20
 28a:	22 bb       	out	0x12, r18	; 18
 28c:	3f ef       	ldi	r19, 0xFF	; 255
 28e:	40 e7       	ldi	r20, 0x70	; 112
 290:	22 e0       	ldi	r18, 0x02	; 2
 292:	31 50       	subi	r19, 0x01	; 1
 294:	40 40       	sbci	r20, 0x00	; 0
 296:	20 40       	sbci	r18, 0x00	; 0
 298:	e1 f7       	brne	.-8      	; 0x292 <_leddon+0x5e>
 29a:	00 c0       	rjmp	.+0      	; 0x29c <_leddon+0x68>
 29c:	00 00       	nop
	while (1)
	{
		unsigned int sangDan[] = {0x01, 0x03, 0x07, 0x0F, 0x1F, 0x3F, 0x7F, 0xFF};
		PORTD = 0xFF;
		_delay_ms(100);
		for (int i = 7; i>=0; i--)
 29e:	01 97       	sbiw	r24, 0x01	; 1
 2a0:	99 23       	and	r25, r25
 2a2:	4c f7       	brge	.-46     	; 0x276 <_leddon+0x42>
		{
			PORTD = sangDan[i];
			_delay_ms(100);
		}

		unsigned int tatDan[] = {0x01, 0x03, 0x07, 0x0F, 0x1F, 0x3F, 0x7F, 0xFF};
 2a4:	80 e1       	ldi	r24, 0x10	; 16
 2a6:	e0 e6       	ldi	r30, 0x60	; 96
 2a8:	f0 e0       	ldi	r31, 0x00	; 0
 2aa:	de 01       	movw	r26, r28
 2ac:	51 96       	adiw	r26, 0x11	; 17
 2ae:	01 90       	ld	r0, Z+
 2b0:	0d 92       	st	X+, r0
 2b2:	8a 95       	dec	r24
 2b4:	e1 f7       	brne	.-8      	; 0x2ae <_leddon+0x7a>
		PORTD = 0x00;
 2b6:	12 ba       	out	0x12, r1	; 18
 2b8:	3f ef       	ldi	r19, 0xFF	; 255
 2ba:	40 e7       	ldi	r20, 0x70	; 112
 2bc:	82 e0       	ldi	r24, 0x02	; 2
 2be:	31 50       	subi	r19, 0x01	; 1
 2c0:	40 40       	sbci	r20, 0x00	; 0
 2c2:	80 40       	sbci	r24, 0x00	; 0
 2c4:	e1 f7       	brne	.-8      	; 0x2be <_leddon+0x8a>
 2c6:	00 c0       	rjmp	.+0      	; 0x2c8 <_leddon+0x94>
 2c8:	00 00       	nop
		_delay_ms(100);
		for (int i = 0; i<=7; i++)
 2ca:	80 e0       	ldi	r24, 0x00	; 0
 2cc:	90 e0       	ldi	r25, 0x00	; 0
 2ce:	15 c0       	rjmp	.+42     	; 0x2fa <_leddon+0xc6>
		{
			PORTD = tatDan[i];
 2d0:	fc 01       	movw	r30, r24
 2d2:	ee 0f       	add	r30, r30
 2d4:	ff 1f       	adc	r31, r31
 2d6:	21 e0       	ldi	r18, 0x01	; 1
 2d8:	30 e0       	ldi	r19, 0x00	; 0
 2da:	2c 0f       	add	r18, r28
 2dc:	3d 1f       	adc	r19, r29
 2de:	e2 0f       	add	r30, r18
 2e0:	f3 1f       	adc	r31, r19
 2e2:	20 89       	ldd	r18, Z+16	; 0x10
 2e4:	22 bb       	out	0x12, r18	; 18
 2e6:	3f ef       	ldi	r19, 0xFF	; 255
 2e8:	40 e7       	ldi	r20, 0x70	; 112
 2ea:	22 e0       	ldi	r18, 0x02	; 2
 2ec:	31 50       	subi	r19, 0x01	; 1
 2ee:	40 40       	sbci	r20, 0x00	; 0
 2f0:	20 40       	sbci	r18, 0x00	; 0
 2f2:	e1 f7       	brne	.-8      	; 0x2ec <_leddon+0xb8>
 2f4:	00 c0       	rjmp	.+0      	; 0x2f6 <_leddon+0xc2>
 2f6:	00 00       	nop
		}

		unsigned int tatDan[] = {0x01, 0x03, 0x07, 0x0F, 0x1F, 0x3F, 0x7F, 0xFF};
		PORTD = 0x00;
		_delay_ms(100);
		for (int i = 0; i<=7; i++)
 2f8:	01 96       	adiw	r24, 0x01	; 1
 2fa:	88 30       	cpi	r24, 0x08	; 8
 2fc:	91 05       	cpc	r25, r1
 2fe:	44 f3       	brlt	.-48     	; 0x2d0 <_leddon+0x9c>
		{
			PORTD = tatDan[i];
			_delay_ms(100);
		}
		
		unsigned int lanLuot[] = {0b11111110, 0b11111101, 0b11111011, 0b11110111, 0b11101111, 0b11011111, 0b10111111, 0b01111111};
 300:	80 e1       	ldi	r24, 0x10	; 16
 302:	e0 e7       	ldi	r30, 0x70	; 112
 304:	f0 e0       	ldi	r31, 0x00	; 0
 306:	de 01       	movw	r26, r28
 308:	11 96       	adiw	r26, 0x01	; 1
 30a:	01 90       	ld	r0, Z+
 30c:	0d 92       	st	X+, r0
 30e:	8a 95       	dec	r24
 310:	e1 f7       	brne	.-8      	; 0x30a <_leddon+0xd6>
		PORTD = 0xFF;
 312:	8f ef       	ldi	r24, 0xFF	; 255
 314:	82 bb       	out	0x12, r24	; 18
 316:	3f ef       	ldi	r19, 0xFF	; 255
 318:	40 e7       	ldi	r20, 0x70	; 112
 31a:	82 e0       	ldi	r24, 0x02	; 2
 31c:	31 50       	subi	r19, 0x01	; 1
 31e:	40 40       	sbci	r20, 0x00	; 0
 320:	80 40       	sbci	r24, 0x00	; 0
 322:	e1 f7       	brne	.-8      	; 0x31c <_leddon+0xe8>
 324:	00 c0       	rjmp	.+0      	; 0x326 <_leddon+0xf2>
 326:	00 00       	nop
		_delay_ms(100);
		for (int i = 0; i<=7; i++)
 328:	80 e0       	ldi	r24, 0x00	; 0
 32a:	90 e0       	ldi	r25, 0x00	; 0
 32c:	15 c0       	rjmp	.+42     	; 0x358 <_leddon+0x124>
		{
			PORTD = lanLuot[i];
 32e:	fc 01       	movw	r30, r24
 330:	ee 0f       	add	r30, r30
 332:	ff 1f       	adc	r31, r31
 334:	21 e0       	ldi	r18, 0x01	; 1
 336:	30 e0       	ldi	r19, 0x00	; 0
 338:	2c 0f       	add	r18, r28
 33a:	3d 1f       	adc	r19, r29
 33c:	e2 0f       	add	r30, r18
 33e:	f3 1f       	adc	r31, r19
 340:	20 81       	ld	r18, Z
 342:	22 bb       	out	0x12, r18	; 18
 344:	3f ef       	ldi	r19, 0xFF	; 255
 346:	40 e7       	ldi	r20, 0x70	; 112
 348:	22 e0       	ldi	r18, 0x02	; 2
 34a:	31 50       	subi	r19, 0x01	; 1
 34c:	40 40       	sbci	r20, 0x00	; 0
 34e:	20 40       	sbci	r18, 0x00	; 0
 350:	e1 f7       	brne	.-8      	; 0x34a <_leddon+0x116>
 352:	00 c0       	rjmp	.+0      	; 0x354 <_leddon+0x120>
 354:	00 00       	nop
		}
		
		unsigned int lanLuot[] = {0b11111110, 0b11111101, 0b11111011, 0b11110111, 0b11101111, 0b11011111, 0b10111111, 0b01111111};
		PORTD = 0xFF;
		_delay_ms(100);
		for (int i = 0; i<=7; i++)
 356:	01 96       	adiw	r24, 0x01	; 1
 358:	88 30       	cpi	r24, 0x08	; 8
 35a:	91 05       	cpc	r25, r1
 35c:	44 f3       	brlt	.-48     	; 0x32e <_leddon+0xfa>
 35e:	3f ef       	ldi	r19, 0xFF	; 255
 360:	40 e7       	ldi	r20, 0x70	; 112
 362:	82 e0       	ldi	r24, 0x02	; 2
 364:	31 50       	subi	r19, 0x01	; 1
 366:	40 40       	sbci	r20, 0x00	; 0
 368:	80 40       	sbci	r24, 0x00	; 0
 36a:	e1 f7       	brne	.-8      	; 0x364 <_leddon+0x130>
 36c:	00 c0       	rjmp	.+0      	; 0x36e <_leddon+0x13a>
 36e:	00 00       	nop
		{
			PORTD = lanLuot[i];
			_delay_ms(100);
		}
		_delay_ms(100);
		for (int i = 7; i>=0; i--)
 370:	87 e0       	ldi	r24, 0x07	; 7
 372:	90 e0       	ldi	r25, 0x00	; 0
 374:	15 c0       	rjmp	.+42     	; 0x3a0 <_leddon+0x16c>
		{
			PORTD = lanLuot[i];
 376:	fc 01       	movw	r30, r24
 378:	ee 0f       	add	r30, r30
 37a:	ff 1f       	adc	r31, r31
 37c:	21 e0       	ldi	r18, 0x01	; 1
 37e:	30 e0       	ldi	r19, 0x00	; 0
 380:	2c 0f       	add	r18, r28
 382:	3d 1f       	adc	r19, r29
 384:	e2 0f       	add	r30, r18
 386:	f3 1f       	adc	r31, r19
 388:	20 81       	ld	r18, Z
 38a:	22 bb       	out	0x12, r18	; 18
 38c:	3f ef       	ldi	r19, 0xFF	; 255
 38e:	40 e7       	ldi	r20, 0x70	; 112
 390:	22 e0       	ldi	r18, 0x02	; 2
 392:	31 50       	subi	r19, 0x01	; 1
 394:	40 40       	sbci	r20, 0x00	; 0
 396:	20 40       	sbci	r18, 0x00	; 0
 398:	e1 f7       	brne	.-8      	; 0x392 <_leddon+0x15e>
 39a:	00 c0       	rjmp	.+0      	; 0x39c <_leddon+0x168>
 39c:	00 00       	nop
		{
			PORTD = lanLuot[i];
			_delay_ms(100);
		}
		_delay_ms(100);
		for (int i = 7; i>=0; i--)
 39e:	01 97       	sbiw	r24, 0x01	; 1
 3a0:	99 23       	and	r25, r25
 3a2:	4c f7       	brge	.-46     	; 0x376 <_leddon+0x142>
		{
			PORTD = lanLuot[i];
			_delay_ms(100);
		}
		
		unsigned int veGiua[] = {0b01111110, 0b10111101, 0b11011011, 0b11100111, 0b11011011, 0b10111101, 0b01111110};
 3a4:	8e e0       	ldi	r24, 0x0E	; 14
 3a6:	e0 e8       	ldi	r30, 0x80	; 128
 3a8:	f0 e0       	ldi	r31, 0x00	; 0
 3aa:	de 01       	movw	r26, r28
 3ac:	d1 96       	adiw	r26, 0x31	; 49
 3ae:	01 90       	ld	r0, Z+
 3b0:	0d 92       	st	X+, r0
 3b2:	8a 95       	dec	r24
 3b4:	e1 f7       	brne	.-8      	; 0x3ae <_leddon+0x17a>
		PORTD = 0xFF;
 3b6:	8f ef       	ldi	r24, 0xFF	; 255
 3b8:	82 bb       	out	0x12, r24	; 18
 3ba:	3f ef       	ldi	r19, 0xFF	; 255
 3bc:	41 ee       	ldi	r20, 0xE1	; 225
 3be:	84 e0       	ldi	r24, 0x04	; 4
 3c0:	31 50       	subi	r19, 0x01	; 1
 3c2:	40 40       	sbci	r20, 0x00	; 0
 3c4:	80 40       	sbci	r24, 0x00	; 0
 3c6:	e1 f7       	brne	.-8      	; 0x3c0 <_leddon+0x18c>
 3c8:	00 c0       	rjmp	.+0      	; 0x3ca <_leddon+0x196>
 3ca:	00 00       	nop
		_delay_ms(200);
		for (int i = 0; i<=6; i++)
 3cc:	80 e0       	ldi	r24, 0x00	; 0
 3ce:	90 e0       	ldi	r25, 0x00	; 0
 3d0:	15 c0       	rjmp	.+42     	; 0x3fc <_leddon+0x1c8>
		{
			PORTD = veGiua[i];
 3d2:	fc 01       	movw	r30, r24
 3d4:	ee 0f       	add	r30, r30
 3d6:	ff 1f       	adc	r31, r31
 3d8:	21 e0       	ldi	r18, 0x01	; 1
 3da:	30 e0       	ldi	r19, 0x00	; 0
 3dc:	2c 0f       	add	r18, r28
 3de:	3d 1f       	adc	r19, r29
 3e0:	e2 0f       	add	r30, r18
 3e2:	f3 1f       	adc	r31, r19
 3e4:	20 a9       	ldd	r18, Z+48	; 0x30
 3e6:	22 bb       	out	0x12, r18	; 18
 3e8:	3f ef       	ldi	r19, 0xFF	; 255
 3ea:	41 ee       	ldi	r20, 0xE1	; 225
 3ec:	24 e0       	ldi	r18, 0x04	; 4
 3ee:	31 50       	subi	r19, 0x01	; 1
 3f0:	40 40       	sbci	r20, 0x00	; 0
 3f2:	20 40       	sbci	r18, 0x00	; 0
 3f4:	e1 f7       	brne	.-8      	; 0x3ee <_leddon+0x1ba>
 3f6:	00 c0       	rjmp	.+0      	; 0x3f8 <_leddon+0x1c4>
 3f8:	00 00       	nop
		}
		
		unsigned int veGiua[] = {0b01111110, 0b10111101, 0b11011011, 0b11100111, 0b11011011, 0b10111101, 0b01111110};
		PORTD = 0xFF;
		_delay_ms(200);
		for (int i = 0; i<=6; i++)
 3fa:	01 96       	adiw	r24, 0x01	; 1
 3fc:	87 30       	cpi	r24, 0x07	; 7
 3fe:	91 05       	cpc	r25, r1
 400:	44 f3       	brlt	.-48     	; 0x3d2 <_leddon+0x19e>
 402:	22 cf       	rjmp	.-444    	; 0x248 <_leddon+0x14>

00000404 <_7seg>:
#define LED7SEG_H_

void _7seg(void);

void _7seg(void)
{
 404:	cf 93       	push	r28
 406:	df 93       	push	r29
 408:	cd b7       	in	r28, 0x3d	; 61
 40a:	de b7       	in	r29, 0x3e	; 62
 40c:	64 97       	sbiw	r28, 0x14	; 20
 40e:	0f b6       	in	r0, 0x3f	; 63
 410:	f8 94       	cli
 412:	de bf       	out	0x3e, r29	; 62
 414:	0f be       	out	0x3f, r0	; 63
 416:	cd bf       	out	0x3d, r28	; 61
	while (1)
	{
		unsigned int MaLed[10] ={0x88,0xEB,0x4C,0x49,0x2B,0x19,0x18,0xCB,0x08,0x09}; // 1 den 9
 418:	84 e1       	ldi	r24, 0x14	; 20
 41a:	ee e8       	ldi	r30, 0x8E	; 142
 41c:	f0 e0       	ldi	r31, 0x00	; 0
 41e:	de 01       	movw	r26, r28
 420:	11 96       	adiw	r26, 0x01	; 1
 422:	01 90       	ld	r0, Z+
 424:	0d 92       	st	X+, r0
 426:	8a 95       	dec	r24
 428:	e1 f7       	brne	.-8      	; 0x422 <_7seg+0x1e>
		//unsigned int MaLed[8] ={0x9F,0x3F,0x7B,0xF9,0xFC,0x7E,0x6F,0xCF}; // vong so 8
		for (int i=0;i<10;i++)
 42a:	80 e0       	ldi	r24, 0x00	; 0
 42c:	90 e0       	ldi	r25, 0x00	; 0
 42e:	15 c0       	rjmp	.+42     	; 0x45a <_7seg+0x56>
		{
			PORTC = MaLed[i];
 430:	fc 01       	movw	r30, r24
 432:	ee 0f       	add	r30, r30
 434:	ff 1f       	adc	r31, r31
 436:	21 e0       	ldi	r18, 0x01	; 1
 438:	30 e0       	ldi	r19, 0x00	; 0
 43a:	2c 0f       	add	r18, r28
 43c:	3d 1f       	adc	r19, r29
 43e:	e2 0f       	add	r30, r18
 440:	f3 1f       	adc	r31, r19
 442:	20 81       	ld	r18, Z
 444:	25 bb       	out	0x15, r18	; 21
 446:	3f ef       	ldi	r19, 0xFF	; 255
 448:	44 e3       	ldi	r20, 0x34	; 52
 44a:	2c e0       	ldi	r18, 0x0C	; 12
 44c:	31 50       	subi	r19, 0x01	; 1
 44e:	40 40       	sbci	r20, 0x00	; 0
 450:	20 40       	sbci	r18, 0x00	; 0
 452:	e1 f7       	brne	.-8      	; 0x44c <_7seg+0x48>
 454:	00 c0       	rjmp	.+0      	; 0x456 <_7seg+0x52>
 456:	00 00       	nop
{
	while (1)
	{
		unsigned int MaLed[10] ={0x88,0xEB,0x4C,0x49,0x2B,0x19,0x18,0xCB,0x08,0x09}; // 1 den 9
		//unsigned int MaLed[8] ={0x9F,0x3F,0x7B,0xF9,0xFC,0x7E,0x6F,0xCF}; // vong so 8
		for (int i=0;i<10;i++)
 458:	01 96       	adiw	r24, 0x01	; 1
 45a:	8a 30       	cpi	r24, 0x0A	; 10
 45c:	91 05       	cpc	r25, r1
 45e:	44 f3       	brlt	.-48     	; 0x430 <_7seg+0x2c>
 460:	db cf       	rjmp	.-74     	; 0x418 <_7seg+0x14>

00000462 <main>:
unsigned char button = 0;

int main(void)
{
	//Khai bao trang thai output cho 8 chan led det
	DDRD |= 0xFF;
 462:	81 b3       	in	r24, 0x11	; 17
 464:	8f ef       	ldi	r24, 0xFF	; 255
 466:	81 bb       	out	0x11, r24	; 17
	PORTD |= 0x00;
 468:	92 b3       	in	r25, 0x12	; 18
 46a:	92 bb       	out	0x12, r25	; 18
	//LED 7 thanh
	DDRC |= 0xFF;
 46c:	94 b3       	in	r25, 0x14	; 20
 46e:	84 bb       	out	0x14, r24	; 20
	PORTC |= 0x00;
 470:	85 b3       	in	r24, 0x15	; 21
 472:	85 bb       	out	0x15, r24	; 21
	//Khoi tao cho chan ADC
	DDRA = 0x00; /* Make ADC port as input */
 474:	1a ba       	out	0x1a, r1	; 26
	ADCSRA = 0x87; /* Enable ADC, with freq/128 */
 476:	87 e8       	ldi	r24, 0x87	; 135
 478:	86 b9       	out	0x06, r24	; 6
	ADMUX = 0x40; /* Vref: Avcc, ADC channel: 0 */		
 47a:	80 e4       	ldi	r24, 0x40	; 64
 47c:	87 b9       	out	0x07, r24	; 7

	while (1)
	{
		button = buttCheck();
 47e:	0e 94 49 00 	call	0x92	; 0x92 <buttCheck>
 482:	80 93 04 01 	sts	0x0104, r24	; 0x800104 <__data_end>
		switch (button)
 486:	82 30       	cpi	r24, 0x02	; 2
 488:	59 f0       	breq	.+22     	; 0x4a0 <main+0x3e>
 48a:	18 f4       	brcc	.+6      	; 0x492 <main+0x30>
 48c:	81 30       	cpi	r24, 0x01	; 1
 48e:	31 f0       	breq	.+12     	; 0x49c <main+0x3a>
 490:	18 c1       	rjmp	.+560    	; 0x6c2 <main+0x260>
 492:	83 30       	cpi	r24, 0x03	; 3
 494:	39 f0       	breq	.+14     	; 0x4a4 <main+0x42>
 496:	84 30       	cpi	r24, 0x04	; 4
 498:	91 f3       	breq	.-28     	; 0x47e <main+0x1c>
 49a:	13 c1       	rjmp	.+550    	; 0x6c2 <main+0x260>
		{
			case 1:
				_leddon();	
 49c:	0e 94 1a 01 	call	0x234	; 0x234 <_leddon>
			break;
			case 2:
				_7seg();
 4a0:	0e 94 02 02 	call	0x404	; 0x404 <_7seg>
			break;
			case 3:
				LCD_Init();
 4a4:	0e 94 c7 00 	call	0x18e	; 0x18e <LCD_Init>
				//_delay_ms(3500);
				ADC_Init();
 4a8:	0e 94 61 00 	call	0xc2	; 0xc2 <ADC_Init>
				while (1)
				{
					adc_value = ADC_Read(7);
 4ac:	87 e0       	ldi	r24, 0x07	; 7
 4ae:	0e 94 67 00 	call	0xce	; 0xce <ADC_Read>
 4b2:	90 93 0b 01 	sts	0x010B, r25	; 0x80010b <adc_value+0x1>
 4b6:	80 93 0a 01 	sts	0x010A, r24	; 0x80010a <adc_value>
					nhietdo = adc_value*0.4888; // nhietdo = adc_value*500/1023
 4ba:	bc 01       	movw	r22, r24
 4bc:	99 0f       	add	r25, r25
 4be:	88 0b       	sbc	r24, r24
 4c0:	99 0b       	sbc	r25, r25
 4c2:	0e 94 b1 03 	call	0x762	; 0x762 <__floatsisf>
 4c6:	2e ef       	ldi	r18, 0xFE	; 254
 4c8:	33 e4       	ldi	r19, 0x43	; 67
 4ca:	4a ef       	ldi	r20, 0xFA	; 250
 4cc:	5e e3       	ldi	r21, 0x3E	; 62
 4ce:	0e 94 3e 04 	call	0x87c	; 0x87c <__mulsf3>
 4d2:	60 93 0d 01 	sts	0x010D, r22	; 0x80010d <nhietdo>
 4d6:	70 93 0e 01 	sts	0x010E, r23	; 0x80010e <nhietdo+0x1>
 4da:	80 93 0f 01 	sts	0x010F, r24	; 0x80010f <nhietdo+0x2>
 4de:	90 93 10 01 	sts	0x0110, r25	; 0x800110 <nhietdo+0x3>
					if (nhietdo>30)
 4e2:	20 e0       	ldi	r18, 0x00	; 0
 4e4:	30 e0       	ldi	r19, 0x00	; 0
 4e6:	40 ef       	ldi	r20, 0xF0	; 240
 4e8:	51 e4       	ldi	r21, 0x41	; 65
 4ea:	0e 94 39 04 	call	0x872	; 0x872 <__gesf2>
 4ee:	18 16       	cp	r1, r24
 4f0:	dc f5       	brge	.+118    	; 0x568 <main+0x106>
					{
						LCD_Clear();
 4f2:	0e 94 bd 00 	call	0x17a	; 0x17a <LCD_Clear>
						LCD_GotoXY(0,0);
 4f6:	60 e0       	ldi	r22, 0x00	; 0
 4f8:	80 e0       	ldi	r24, 0x00	; 0
 4fa:	0e 94 fc 00 	call	0x1f8	; 0x1f8 <LCD_GotoXY>
						LCD_Puts("Temperature: ");
 4fe:	82 ea       	ldi	r24, 0xA2	; 162
 500:	90 e0       	ldi	r25, 0x00	; 0
 502:	0e 94 0d 01 	call	0x21a	; 0x21a <LCD_Puts>
						LCD_GotoXY(12,0);
 506:	60 e0       	ldi	r22, 0x00	; 0
 508:	8c e0       	ldi	r24, 0x0C	; 12
 50a:	0e 94 fc 00 	call	0x1f8	; 0x1f8 <LCD_GotoXY>
						sprintf(buff,"%d%cC ", (int)nhietdo, degree_sysmbol);
 50e:	1f 92       	push	r1
 510:	8f ed       	ldi	r24, 0xDF	; 223
 512:	8f 93       	push	r24
 514:	60 91 0d 01 	lds	r22, 0x010D	; 0x80010d <nhietdo>
 518:	70 91 0e 01 	lds	r23, 0x010E	; 0x80010e <nhietdo+0x1>
 51c:	80 91 0f 01 	lds	r24, 0x010F	; 0x80010f <nhietdo+0x2>
 520:	90 91 10 01 	lds	r25, 0x0110	; 0x800110 <nhietdo+0x3>
 524:	0e 94 79 03 	call	0x6f2	; 0x6f2 <__fixsfsi>
 528:	7f 93       	push	r23
 52a:	6f 93       	push	r22
 52c:	80 eb       	ldi	r24, 0xB0	; 176
 52e:	90 e0       	ldi	r25, 0x00	; 0
 530:	9f 93       	push	r25
 532:	8f 93       	push	r24
 534:	85 e0       	ldi	r24, 0x05	; 5
 536:	91 e0       	ldi	r25, 0x01	; 1
 538:	9f 93       	push	r25
 53a:	8f 93       	push	r24
 53c:	0e 94 d3 04 	call	0x9a6	; 0x9a6 <sprintf>
						LCD_Puts(buff);
 540:	85 e0       	ldi	r24, 0x05	; 5
 542:	91 e0       	ldi	r25, 0x01	; 1
 544:	0e 94 0d 01 	call	0x21a	; 0x21a <LCD_Puts>
						LCD_GotoXY(1,1);
 548:	61 e0       	ldi	r22, 0x01	; 1
 54a:	81 e0       	ldi	r24, 0x01	; 1
 54c:	0e 94 fc 00 	call	0x1f8	; 0x1f8 <LCD_GotoXY>
						LCD_Puts("It is very hot");
 550:	87 eb       	ldi	r24, 0xB7	; 183
 552:	90 e0       	ldi	r25, 0x00	; 0
 554:	0e 94 0d 01 	call	0x21a	; 0x21a <LCD_Puts>
 558:	8d b7       	in	r24, 0x3d	; 61
 55a:	9e b7       	in	r25, 0x3e	; 62
 55c:	08 96       	adiw	r24, 0x08	; 8
 55e:	0f b6       	in	r0, 0x3f	; 63
 560:	f8 94       	cli
 562:	9e bf       	out	0x3e, r25	; 62
 564:	0f be       	out	0x3f, r0	; 63
 566:	8d bf       	out	0x3d, r24	; 61
					}
					if ((nhietdo<30)&&(nhietdo>20))
 568:	c0 90 0d 01 	lds	r12, 0x010D	; 0x80010d <nhietdo>
 56c:	d0 90 0e 01 	lds	r13, 0x010E	; 0x80010e <nhietdo+0x1>
 570:	e0 90 0f 01 	lds	r14, 0x010F	; 0x80010f <nhietdo+0x2>
 574:	f0 90 10 01 	lds	r15, 0x0110	; 0x800110 <nhietdo+0x3>
 578:	20 e0       	ldi	r18, 0x00	; 0
 57a:	30 e0       	ldi	r19, 0x00	; 0
 57c:	40 ef       	ldi	r20, 0xF0	; 240
 57e:	51 e4       	ldi	r21, 0x41	; 65
 580:	c7 01       	movw	r24, r14
 582:	b6 01       	movw	r22, r12
 584:	0e 94 74 03 	call	0x6e8	; 0x6e8 <__cmpsf2>
 588:	88 23       	and	r24, r24
 58a:	0c f0       	brlt	.+2      	; 0x58e <main+0x12c>
 58c:	45 c0       	rjmp	.+138    	; 0x618 <main+0x1b6>
 58e:	20 e0       	ldi	r18, 0x00	; 0
 590:	30 e0       	ldi	r19, 0x00	; 0
 592:	40 ea       	ldi	r20, 0xA0	; 160
 594:	51 e4       	ldi	r21, 0x41	; 65
 596:	c7 01       	movw	r24, r14
 598:	b6 01       	movw	r22, r12
 59a:	0e 94 39 04 	call	0x872	; 0x872 <__gesf2>
 59e:	18 16       	cp	r1, r24
 5a0:	dc f5       	brge	.+118    	; 0x618 <main+0x1b6>
					{
						LCD_Clear();
 5a2:	0e 94 bd 00 	call	0x17a	; 0x17a <LCD_Clear>
						LCD_GotoXY(0,0);
 5a6:	60 e0       	ldi	r22, 0x00	; 0
 5a8:	80 e0       	ldi	r24, 0x00	; 0
 5aa:	0e 94 fc 00 	call	0x1f8	; 0x1f8 <LCD_GotoXY>
						LCD_Puts("Temperature: ");
 5ae:	82 ea       	ldi	r24, 0xA2	; 162
 5b0:	90 e0       	ldi	r25, 0x00	; 0
 5b2:	0e 94 0d 01 	call	0x21a	; 0x21a <LCD_Puts>
						LCD_GotoXY(12,0);
 5b6:	60 e0       	ldi	r22, 0x00	; 0
 5b8:	8c e0       	ldi	r24, 0x0C	; 12
 5ba:	0e 94 fc 00 	call	0x1f8	; 0x1f8 <LCD_GotoXY>
						sprintf(buff,"%d%cC ", (int)nhietdo, degree_sysmbol);
 5be:	1f 92       	push	r1
 5c0:	8f ed       	ldi	r24, 0xDF	; 223
 5c2:	8f 93       	push	r24
 5c4:	60 91 0d 01 	lds	r22, 0x010D	; 0x80010d <nhietdo>
 5c8:	70 91 0e 01 	lds	r23, 0x010E	; 0x80010e <nhietdo+0x1>
 5cc:	80 91 0f 01 	lds	r24, 0x010F	; 0x80010f <nhietdo+0x2>
 5d0:	90 91 10 01 	lds	r25, 0x0110	; 0x800110 <nhietdo+0x3>
 5d4:	0e 94 79 03 	call	0x6f2	; 0x6f2 <__fixsfsi>
 5d8:	7f 93       	push	r23
 5da:	6f 93       	push	r22
 5dc:	80 eb       	ldi	r24, 0xB0	; 176
 5de:	90 e0       	ldi	r25, 0x00	; 0
 5e0:	9f 93       	push	r25
 5e2:	8f 93       	push	r24
 5e4:	85 e0       	ldi	r24, 0x05	; 5
 5e6:	91 e0       	ldi	r25, 0x01	; 1
 5e8:	9f 93       	push	r25
 5ea:	8f 93       	push	r24
 5ec:	0e 94 d3 04 	call	0x9a6	; 0x9a6 <sprintf>
						LCD_Puts(buff);
 5f0:	85 e0       	ldi	r24, 0x05	; 5
 5f2:	91 e0       	ldi	r25, 0x01	; 1
 5f4:	0e 94 0d 01 	call	0x21a	; 0x21a <LCD_Puts>
						LCD_GotoXY(0,1);
 5f8:	61 e0       	ldi	r22, 0x01	; 1
 5fa:	80 e0       	ldi	r24, 0x00	; 0
 5fc:	0e 94 fc 00 	call	0x1f8	; 0x1f8 <LCD_GotoXY>
						LCD_Puts("It's comfortable");
 600:	86 ec       	ldi	r24, 0xC6	; 198
 602:	90 e0       	ldi	r25, 0x00	; 0
 604:	0e 94 0d 01 	call	0x21a	; 0x21a <LCD_Puts>
 608:	8d b7       	in	r24, 0x3d	; 61
 60a:	9e b7       	in	r25, 0x3e	; 62
 60c:	08 96       	adiw	r24, 0x08	; 8
 60e:	0f b6       	in	r0, 0x3f	; 63
 610:	f8 94       	cli
 612:	9e bf       	out	0x3e, r25	; 62
 614:	0f be       	out	0x3f, r0	; 63
 616:	8d bf       	out	0x3d, r24	; 61
					}
					if (nhietdo<20)
 618:	60 91 0d 01 	lds	r22, 0x010D	; 0x80010d <nhietdo>
 61c:	70 91 0e 01 	lds	r23, 0x010E	; 0x80010e <nhietdo+0x1>
 620:	80 91 0f 01 	lds	r24, 0x010F	; 0x80010f <nhietdo+0x2>
 624:	90 91 10 01 	lds	r25, 0x0110	; 0x800110 <nhietdo+0x3>
 628:	20 e0       	ldi	r18, 0x00	; 0
 62a:	30 e0       	ldi	r19, 0x00	; 0
 62c:	40 ea       	ldi	r20, 0xA0	; 160
 62e:	51 e4       	ldi	r21, 0x41	; 65
 630:	0e 94 74 03 	call	0x6e8	; 0x6e8 <__cmpsf2>
 634:	88 23       	and	r24, r24
 636:	dc f5       	brge	.+118    	; 0x6ae <main+0x24c>
					{
						LCD_Clear();
 638:	0e 94 bd 00 	call	0x17a	; 0x17a <LCD_Clear>
						LCD_GotoXY(0,0);
 63c:	60 e0       	ldi	r22, 0x00	; 0
 63e:	80 e0       	ldi	r24, 0x00	; 0
 640:	0e 94 fc 00 	call	0x1f8	; 0x1f8 <LCD_GotoXY>
						LCD_Puts("Temperature: ");
 644:	82 ea       	ldi	r24, 0xA2	; 162
 646:	90 e0       	ldi	r25, 0x00	; 0
 648:	0e 94 0d 01 	call	0x21a	; 0x21a <LCD_Puts>
						LCD_GotoXY(12,0);
 64c:	60 e0       	ldi	r22, 0x00	; 0
 64e:	8c e0       	ldi	r24, 0x0C	; 12
 650:	0e 94 fc 00 	call	0x1f8	; 0x1f8 <LCD_GotoXY>
						sprintf(buff,"%d%cC ", (int)nhietdo, degree_sysmbol);
 654:	1f 92       	push	r1
 656:	8f ed       	ldi	r24, 0xDF	; 223
 658:	8f 93       	push	r24
 65a:	60 91 0d 01 	lds	r22, 0x010D	; 0x80010d <nhietdo>
 65e:	70 91 0e 01 	lds	r23, 0x010E	; 0x80010e <nhietdo+0x1>
 662:	80 91 0f 01 	lds	r24, 0x010F	; 0x80010f <nhietdo+0x2>
 666:	90 91 10 01 	lds	r25, 0x0110	; 0x800110 <nhietdo+0x3>
 66a:	0e 94 79 03 	call	0x6f2	; 0x6f2 <__fixsfsi>
 66e:	7f 93       	push	r23
 670:	6f 93       	push	r22
 672:	80 eb       	ldi	r24, 0xB0	; 176
 674:	90 e0       	ldi	r25, 0x00	; 0
 676:	9f 93       	push	r25
 678:	8f 93       	push	r24
 67a:	85 e0       	ldi	r24, 0x05	; 5
 67c:	91 e0       	ldi	r25, 0x01	; 1
 67e:	9f 93       	push	r25
 680:	8f 93       	push	r24
 682:	0e 94 d3 04 	call	0x9a6	; 0x9a6 <sprintf>
						LCD_Puts(buff);
 686:	85 e0       	ldi	r24, 0x05	; 5
 688:	91 e0       	ldi	r25, 0x01	; 1
 68a:	0e 94 0d 01 	call	0x21a	; 0x21a <LCD_Puts>
						LCD_GotoXY(1,1);
 68e:	61 e0       	ldi	r22, 0x01	; 1
 690:	81 e0       	ldi	r24, 0x01	; 1
 692:	0e 94 fc 00 	call	0x1f8	; 0x1f8 <LCD_GotoXY>
						LCD_Puts("It is cold now");
 696:	87 ed       	ldi	r24, 0xD7	; 215
 698:	90 e0       	ldi	r25, 0x00	; 0
 69a:	0e 94 0d 01 	call	0x21a	; 0x21a <LCD_Puts>
 69e:	8d b7       	in	r24, 0x3d	; 61
 6a0:	9e b7       	in	r25, 0x3e	; 62
 6a2:	08 96       	adiw	r24, 0x08	; 8
 6a4:	0f b6       	in	r0, 0x3f	; 63
 6a6:	f8 94       	cli
 6a8:	9e bf       	out	0x3e, r25	; 62
 6aa:	0f be       	out	0x3f, r0	; 63
 6ac:	8d bf       	out	0x3d, r24	; 61
 6ae:	9f ef       	ldi	r25, 0xFF	; 255
 6b0:	23 ed       	ldi	r18, 0xD3	; 211
 6b2:	80 e3       	ldi	r24, 0x30	; 48
 6b4:	91 50       	subi	r25, 0x01	; 1
 6b6:	20 40       	sbci	r18, 0x00	; 0
 6b8:	80 40       	sbci	r24, 0x00	; 0
 6ba:	e1 f7       	brne	.-8      	; 0x6b4 <main+0x252>
 6bc:	00 c0       	rjmp	.+0      	; 0x6be <main+0x25c>
 6be:	00 00       	nop
 6c0:	f5 ce       	rjmp	.-534    	; 0x4ac <main+0x4a>
				}				
			break;
			case 4:
			break;
			default:
				LCD_Init();
 6c2:	0e 94 c7 00 	call	0x18e	; 0x18e <LCD_Init>
				LCD_GotoXY(1,0);
 6c6:	60 e0       	ldi	r22, 0x00	; 0
 6c8:	81 e0       	ldi	r24, 0x01	; 1
 6ca:	0e 94 fc 00 	call	0x1f8	; 0x1f8 <LCD_GotoXY>
				LCD_Puts("NguyenDinhTuan");
 6ce:	86 ee       	ldi	r24, 0xE6	; 230
 6d0:	90 e0       	ldi	r25, 0x00	; 0
 6d2:	0e 94 0d 01 	call	0x21a	; 0x21a <LCD_Puts>
				LCD_GotoXY(2,1);
 6d6:	61 e0       	ldi	r22, 0x01	; 1
 6d8:	82 e0       	ldi	r24, 0x02	; 2
 6da:	0e 94 fc 00 	call	0x1f8	; 0x1f8 <LCD_GotoXY>
				LCD_Puts("MSSV 20182861");
 6de:	85 ef       	ldi	r24, 0xF5	; 245
 6e0:	90 e0       	ldi	r25, 0x00	; 0
 6e2:	0e 94 0d 01 	call	0x21a	; 0x21a <LCD_Puts>
 6e6:	cb ce       	rjmp	.-618    	; 0x47e <main+0x1c>

000006e8 <__cmpsf2>:
 6e8:	0e 94 ec 03 	call	0x7d8	; 0x7d8 <__fp_cmp>
 6ec:	08 f4       	brcc	.+2      	; 0x6f0 <__cmpsf2+0x8>
 6ee:	81 e0       	ldi	r24, 0x01	; 1
 6f0:	08 95       	ret

000006f2 <__fixsfsi>:
 6f2:	0e 94 80 03 	call	0x700	; 0x700 <__fixunssfsi>
 6f6:	68 94       	set
 6f8:	b1 11       	cpse	r27, r1
 6fa:	0c 94 33 04 	jmp	0x866	; 0x866 <__fp_szero>
 6fe:	08 95       	ret

00000700 <__fixunssfsi>:
 700:	0e 94 18 04 	call	0x830	; 0x830 <__fp_splitA>
 704:	88 f0       	brcs	.+34     	; 0x728 <__fixunssfsi+0x28>
 706:	9f 57       	subi	r25, 0x7F	; 127
 708:	98 f0       	brcs	.+38     	; 0x730 <__fixunssfsi+0x30>
 70a:	b9 2f       	mov	r27, r25
 70c:	99 27       	eor	r25, r25
 70e:	b7 51       	subi	r27, 0x17	; 23
 710:	b0 f0       	brcs	.+44     	; 0x73e <__fixunssfsi+0x3e>
 712:	e1 f0       	breq	.+56     	; 0x74c <__fixunssfsi+0x4c>
 714:	66 0f       	add	r22, r22
 716:	77 1f       	adc	r23, r23
 718:	88 1f       	adc	r24, r24
 71a:	99 1f       	adc	r25, r25
 71c:	1a f0       	brmi	.+6      	; 0x724 <__fixunssfsi+0x24>
 71e:	ba 95       	dec	r27
 720:	c9 f7       	brne	.-14     	; 0x714 <__fixunssfsi+0x14>
 722:	14 c0       	rjmp	.+40     	; 0x74c <__fixunssfsi+0x4c>
 724:	b1 30       	cpi	r27, 0x01	; 1
 726:	91 f0       	breq	.+36     	; 0x74c <__fixunssfsi+0x4c>
 728:	0e 94 32 04 	call	0x864	; 0x864 <__fp_zero>
 72c:	b1 e0       	ldi	r27, 0x01	; 1
 72e:	08 95       	ret
 730:	0c 94 32 04 	jmp	0x864	; 0x864 <__fp_zero>
 734:	67 2f       	mov	r22, r23
 736:	78 2f       	mov	r23, r24
 738:	88 27       	eor	r24, r24
 73a:	b8 5f       	subi	r27, 0xF8	; 248
 73c:	39 f0       	breq	.+14     	; 0x74c <__fixunssfsi+0x4c>
 73e:	b9 3f       	cpi	r27, 0xF9	; 249
 740:	cc f3       	brlt	.-14     	; 0x734 <__fixunssfsi+0x34>
 742:	86 95       	lsr	r24
 744:	77 95       	ror	r23
 746:	67 95       	ror	r22
 748:	b3 95       	inc	r27
 74a:	d9 f7       	brne	.-10     	; 0x742 <__fixunssfsi+0x42>
 74c:	3e f4       	brtc	.+14     	; 0x75c <__fixunssfsi+0x5c>
 74e:	90 95       	com	r25
 750:	80 95       	com	r24
 752:	70 95       	com	r23
 754:	61 95       	neg	r22
 756:	7f 4f       	sbci	r23, 0xFF	; 255
 758:	8f 4f       	sbci	r24, 0xFF	; 255
 75a:	9f 4f       	sbci	r25, 0xFF	; 255
 75c:	08 95       	ret

0000075e <__floatunsisf>:
 75e:	e8 94       	clt
 760:	09 c0       	rjmp	.+18     	; 0x774 <__floatsisf+0x12>

00000762 <__floatsisf>:
 762:	97 fb       	bst	r25, 7
 764:	3e f4       	brtc	.+14     	; 0x774 <__floatsisf+0x12>
 766:	90 95       	com	r25
 768:	80 95       	com	r24
 76a:	70 95       	com	r23
 76c:	61 95       	neg	r22
 76e:	7f 4f       	sbci	r23, 0xFF	; 255
 770:	8f 4f       	sbci	r24, 0xFF	; 255
 772:	9f 4f       	sbci	r25, 0xFF	; 255
 774:	99 23       	and	r25, r25
 776:	a9 f0       	breq	.+42     	; 0x7a2 <__floatsisf+0x40>
 778:	f9 2f       	mov	r31, r25
 77a:	96 e9       	ldi	r25, 0x96	; 150
 77c:	bb 27       	eor	r27, r27
 77e:	93 95       	inc	r25
 780:	f6 95       	lsr	r31
 782:	87 95       	ror	r24
 784:	77 95       	ror	r23
 786:	67 95       	ror	r22
 788:	b7 95       	ror	r27
 78a:	f1 11       	cpse	r31, r1
 78c:	f8 cf       	rjmp	.-16     	; 0x77e <__floatsisf+0x1c>
 78e:	fa f4       	brpl	.+62     	; 0x7ce <__floatsisf+0x6c>
 790:	bb 0f       	add	r27, r27
 792:	11 f4       	brne	.+4      	; 0x798 <__floatsisf+0x36>
 794:	60 ff       	sbrs	r22, 0
 796:	1b c0       	rjmp	.+54     	; 0x7ce <__floatsisf+0x6c>
 798:	6f 5f       	subi	r22, 0xFF	; 255
 79a:	7f 4f       	sbci	r23, 0xFF	; 255
 79c:	8f 4f       	sbci	r24, 0xFF	; 255
 79e:	9f 4f       	sbci	r25, 0xFF	; 255
 7a0:	16 c0       	rjmp	.+44     	; 0x7ce <__floatsisf+0x6c>
 7a2:	88 23       	and	r24, r24
 7a4:	11 f0       	breq	.+4      	; 0x7aa <__floatsisf+0x48>
 7a6:	96 e9       	ldi	r25, 0x96	; 150
 7a8:	11 c0       	rjmp	.+34     	; 0x7cc <__floatsisf+0x6a>
 7aa:	77 23       	and	r23, r23
 7ac:	21 f0       	breq	.+8      	; 0x7b6 <__floatsisf+0x54>
 7ae:	9e e8       	ldi	r25, 0x8E	; 142
 7b0:	87 2f       	mov	r24, r23
 7b2:	76 2f       	mov	r23, r22
 7b4:	05 c0       	rjmp	.+10     	; 0x7c0 <__floatsisf+0x5e>
 7b6:	66 23       	and	r22, r22
 7b8:	71 f0       	breq	.+28     	; 0x7d6 <__floatsisf+0x74>
 7ba:	96 e8       	ldi	r25, 0x86	; 134
 7bc:	86 2f       	mov	r24, r22
 7be:	70 e0       	ldi	r23, 0x00	; 0
 7c0:	60 e0       	ldi	r22, 0x00	; 0
 7c2:	2a f0       	brmi	.+10     	; 0x7ce <__floatsisf+0x6c>
 7c4:	9a 95       	dec	r25
 7c6:	66 0f       	add	r22, r22
 7c8:	77 1f       	adc	r23, r23
 7ca:	88 1f       	adc	r24, r24
 7cc:	da f7       	brpl	.-10     	; 0x7c4 <__floatsisf+0x62>
 7ce:	88 0f       	add	r24, r24
 7d0:	96 95       	lsr	r25
 7d2:	87 95       	ror	r24
 7d4:	97 f9       	bld	r25, 7
 7d6:	08 95       	ret

000007d8 <__fp_cmp>:
 7d8:	99 0f       	add	r25, r25
 7da:	00 08       	sbc	r0, r0
 7dc:	55 0f       	add	r21, r21
 7de:	aa 0b       	sbc	r26, r26
 7e0:	e0 e8       	ldi	r30, 0x80	; 128
 7e2:	fe ef       	ldi	r31, 0xFE	; 254
 7e4:	16 16       	cp	r1, r22
 7e6:	17 06       	cpc	r1, r23
 7e8:	e8 07       	cpc	r30, r24
 7ea:	f9 07       	cpc	r31, r25
 7ec:	c0 f0       	brcs	.+48     	; 0x81e <__fp_cmp+0x46>
 7ee:	12 16       	cp	r1, r18
 7f0:	13 06       	cpc	r1, r19
 7f2:	e4 07       	cpc	r30, r20
 7f4:	f5 07       	cpc	r31, r21
 7f6:	98 f0       	brcs	.+38     	; 0x81e <__fp_cmp+0x46>
 7f8:	62 1b       	sub	r22, r18
 7fa:	73 0b       	sbc	r23, r19
 7fc:	84 0b       	sbc	r24, r20
 7fe:	95 0b       	sbc	r25, r21
 800:	39 f4       	brne	.+14     	; 0x810 <__fp_cmp+0x38>
 802:	0a 26       	eor	r0, r26
 804:	61 f0       	breq	.+24     	; 0x81e <__fp_cmp+0x46>
 806:	23 2b       	or	r18, r19
 808:	24 2b       	or	r18, r20
 80a:	25 2b       	or	r18, r21
 80c:	21 f4       	brne	.+8      	; 0x816 <__fp_cmp+0x3e>
 80e:	08 95       	ret
 810:	0a 26       	eor	r0, r26
 812:	09 f4       	brne	.+2      	; 0x816 <__fp_cmp+0x3e>
 814:	a1 40       	sbci	r26, 0x01	; 1
 816:	a6 95       	lsr	r26
 818:	8f ef       	ldi	r24, 0xFF	; 255
 81a:	81 1d       	adc	r24, r1
 81c:	81 1d       	adc	r24, r1
 81e:	08 95       	ret

00000820 <__fp_split3>:
 820:	57 fd       	sbrc	r21, 7
 822:	90 58       	subi	r25, 0x80	; 128
 824:	44 0f       	add	r20, r20
 826:	55 1f       	adc	r21, r21
 828:	59 f0       	breq	.+22     	; 0x840 <__fp_splitA+0x10>
 82a:	5f 3f       	cpi	r21, 0xFF	; 255
 82c:	71 f0       	breq	.+28     	; 0x84a <__fp_splitA+0x1a>
 82e:	47 95       	ror	r20

00000830 <__fp_splitA>:
 830:	88 0f       	add	r24, r24
 832:	97 fb       	bst	r25, 7
 834:	99 1f       	adc	r25, r25
 836:	61 f0       	breq	.+24     	; 0x850 <__fp_splitA+0x20>
 838:	9f 3f       	cpi	r25, 0xFF	; 255
 83a:	79 f0       	breq	.+30     	; 0x85a <__fp_splitA+0x2a>
 83c:	87 95       	ror	r24
 83e:	08 95       	ret
 840:	12 16       	cp	r1, r18
 842:	13 06       	cpc	r1, r19
 844:	14 06       	cpc	r1, r20
 846:	55 1f       	adc	r21, r21
 848:	f2 cf       	rjmp	.-28     	; 0x82e <__fp_split3+0xe>
 84a:	46 95       	lsr	r20
 84c:	f1 df       	rcall	.-30     	; 0x830 <__fp_splitA>
 84e:	08 c0       	rjmp	.+16     	; 0x860 <__fp_splitA+0x30>
 850:	16 16       	cp	r1, r22
 852:	17 06       	cpc	r1, r23
 854:	18 06       	cpc	r1, r24
 856:	99 1f       	adc	r25, r25
 858:	f1 cf       	rjmp	.-30     	; 0x83c <__fp_splitA+0xc>
 85a:	86 95       	lsr	r24
 85c:	71 05       	cpc	r23, r1
 85e:	61 05       	cpc	r22, r1
 860:	08 94       	sec
 862:	08 95       	ret

00000864 <__fp_zero>:
 864:	e8 94       	clt

00000866 <__fp_szero>:
 866:	bb 27       	eor	r27, r27
 868:	66 27       	eor	r22, r22
 86a:	77 27       	eor	r23, r23
 86c:	cb 01       	movw	r24, r22
 86e:	97 f9       	bld	r25, 7
 870:	08 95       	ret

00000872 <__gesf2>:
 872:	0e 94 ec 03 	call	0x7d8	; 0x7d8 <__fp_cmp>
 876:	08 f4       	brcc	.+2      	; 0x87a <__gesf2+0x8>
 878:	8f ef       	ldi	r24, 0xFF	; 255
 87a:	08 95       	ret

0000087c <__mulsf3>:
 87c:	0e 94 51 04 	call	0x8a2	; 0x8a2 <__mulsf3x>
 880:	0c 94 c2 04 	jmp	0x984	; 0x984 <__fp_round>
 884:	0e 94 b4 04 	call	0x968	; 0x968 <__fp_pscA>
 888:	38 f0       	brcs	.+14     	; 0x898 <__mulsf3+0x1c>
 88a:	0e 94 bb 04 	call	0x976	; 0x976 <__fp_pscB>
 88e:	20 f0       	brcs	.+8      	; 0x898 <__mulsf3+0x1c>
 890:	95 23       	and	r25, r21
 892:	11 f0       	breq	.+4      	; 0x898 <__mulsf3+0x1c>
 894:	0c 94 ab 04 	jmp	0x956	; 0x956 <__fp_inf>
 898:	0c 94 b1 04 	jmp	0x962	; 0x962 <__fp_nan>
 89c:	11 24       	eor	r1, r1
 89e:	0c 94 33 04 	jmp	0x866	; 0x866 <__fp_szero>

000008a2 <__mulsf3x>:
 8a2:	0e 94 10 04 	call	0x820	; 0x820 <__fp_split3>
 8a6:	70 f3       	brcs	.-36     	; 0x884 <__mulsf3+0x8>

000008a8 <__mulsf3_pse>:
 8a8:	95 9f       	mul	r25, r21
 8aa:	c1 f3       	breq	.-16     	; 0x89c <__mulsf3+0x20>
 8ac:	95 0f       	add	r25, r21
 8ae:	50 e0       	ldi	r21, 0x00	; 0
 8b0:	55 1f       	adc	r21, r21
 8b2:	62 9f       	mul	r22, r18
 8b4:	f0 01       	movw	r30, r0
 8b6:	72 9f       	mul	r23, r18
 8b8:	bb 27       	eor	r27, r27
 8ba:	f0 0d       	add	r31, r0
 8bc:	b1 1d       	adc	r27, r1
 8be:	63 9f       	mul	r22, r19
 8c0:	aa 27       	eor	r26, r26
 8c2:	f0 0d       	add	r31, r0
 8c4:	b1 1d       	adc	r27, r1
 8c6:	aa 1f       	adc	r26, r26
 8c8:	64 9f       	mul	r22, r20
 8ca:	66 27       	eor	r22, r22
 8cc:	b0 0d       	add	r27, r0
 8ce:	a1 1d       	adc	r26, r1
 8d0:	66 1f       	adc	r22, r22
 8d2:	82 9f       	mul	r24, r18
 8d4:	22 27       	eor	r18, r18
 8d6:	b0 0d       	add	r27, r0
 8d8:	a1 1d       	adc	r26, r1
 8da:	62 1f       	adc	r22, r18
 8dc:	73 9f       	mul	r23, r19
 8de:	b0 0d       	add	r27, r0
 8e0:	a1 1d       	adc	r26, r1
 8e2:	62 1f       	adc	r22, r18
 8e4:	83 9f       	mul	r24, r19
 8e6:	a0 0d       	add	r26, r0
 8e8:	61 1d       	adc	r22, r1
 8ea:	22 1f       	adc	r18, r18
 8ec:	74 9f       	mul	r23, r20
 8ee:	33 27       	eor	r19, r19
 8f0:	a0 0d       	add	r26, r0
 8f2:	61 1d       	adc	r22, r1
 8f4:	23 1f       	adc	r18, r19
 8f6:	84 9f       	mul	r24, r20
 8f8:	60 0d       	add	r22, r0
 8fa:	21 1d       	adc	r18, r1
 8fc:	82 2f       	mov	r24, r18
 8fe:	76 2f       	mov	r23, r22
 900:	6a 2f       	mov	r22, r26
 902:	11 24       	eor	r1, r1
 904:	9f 57       	subi	r25, 0x7F	; 127
 906:	50 40       	sbci	r21, 0x00	; 0
 908:	9a f0       	brmi	.+38     	; 0x930 <__mulsf3_pse+0x88>
 90a:	f1 f0       	breq	.+60     	; 0x948 <__mulsf3_pse+0xa0>
 90c:	88 23       	and	r24, r24
 90e:	4a f0       	brmi	.+18     	; 0x922 <__mulsf3_pse+0x7a>
 910:	ee 0f       	add	r30, r30
 912:	ff 1f       	adc	r31, r31
 914:	bb 1f       	adc	r27, r27
 916:	66 1f       	adc	r22, r22
 918:	77 1f       	adc	r23, r23
 91a:	88 1f       	adc	r24, r24
 91c:	91 50       	subi	r25, 0x01	; 1
 91e:	50 40       	sbci	r21, 0x00	; 0
 920:	a9 f7       	brne	.-22     	; 0x90c <__mulsf3_pse+0x64>
 922:	9e 3f       	cpi	r25, 0xFE	; 254
 924:	51 05       	cpc	r21, r1
 926:	80 f0       	brcs	.+32     	; 0x948 <__mulsf3_pse+0xa0>
 928:	0c 94 ab 04 	jmp	0x956	; 0x956 <__fp_inf>
 92c:	0c 94 33 04 	jmp	0x866	; 0x866 <__fp_szero>
 930:	5f 3f       	cpi	r21, 0xFF	; 255
 932:	e4 f3       	brlt	.-8      	; 0x92c <__mulsf3_pse+0x84>
 934:	98 3e       	cpi	r25, 0xE8	; 232
 936:	d4 f3       	brlt	.-12     	; 0x92c <__mulsf3_pse+0x84>
 938:	86 95       	lsr	r24
 93a:	77 95       	ror	r23
 93c:	67 95       	ror	r22
 93e:	b7 95       	ror	r27
 940:	f7 95       	ror	r31
 942:	e7 95       	ror	r30
 944:	9f 5f       	subi	r25, 0xFF	; 255
 946:	c1 f7       	brne	.-16     	; 0x938 <__mulsf3_pse+0x90>
 948:	fe 2b       	or	r31, r30
 94a:	88 0f       	add	r24, r24
 94c:	91 1d       	adc	r25, r1
 94e:	96 95       	lsr	r25
 950:	87 95       	ror	r24
 952:	97 f9       	bld	r25, 7
 954:	08 95       	ret

00000956 <__fp_inf>:
 956:	97 f9       	bld	r25, 7
 958:	9f 67       	ori	r25, 0x7F	; 127
 95a:	80 e8       	ldi	r24, 0x80	; 128
 95c:	70 e0       	ldi	r23, 0x00	; 0
 95e:	60 e0       	ldi	r22, 0x00	; 0
 960:	08 95       	ret

00000962 <__fp_nan>:
 962:	9f ef       	ldi	r25, 0xFF	; 255
 964:	80 ec       	ldi	r24, 0xC0	; 192
 966:	08 95       	ret

00000968 <__fp_pscA>:
 968:	00 24       	eor	r0, r0
 96a:	0a 94       	dec	r0
 96c:	16 16       	cp	r1, r22
 96e:	17 06       	cpc	r1, r23
 970:	18 06       	cpc	r1, r24
 972:	09 06       	cpc	r0, r25
 974:	08 95       	ret

00000976 <__fp_pscB>:
 976:	00 24       	eor	r0, r0
 978:	0a 94       	dec	r0
 97a:	12 16       	cp	r1, r18
 97c:	13 06       	cpc	r1, r19
 97e:	14 06       	cpc	r1, r20
 980:	05 06       	cpc	r0, r21
 982:	08 95       	ret

00000984 <__fp_round>:
 984:	09 2e       	mov	r0, r25
 986:	03 94       	inc	r0
 988:	00 0c       	add	r0, r0
 98a:	11 f4       	brne	.+4      	; 0x990 <__fp_round+0xc>
 98c:	88 23       	and	r24, r24
 98e:	52 f0       	brmi	.+20     	; 0x9a4 <__fp_round+0x20>
 990:	bb 0f       	add	r27, r27
 992:	40 f4       	brcc	.+16     	; 0x9a4 <__fp_round+0x20>
 994:	bf 2b       	or	r27, r31
 996:	11 f4       	brne	.+4      	; 0x99c <__fp_round+0x18>
 998:	60 ff       	sbrs	r22, 0
 99a:	04 c0       	rjmp	.+8      	; 0x9a4 <__fp_round+0x20>
 99c:	6f 5f       	subi	r22, 0xFF	; 255
 99e:	7f 4f       	sbci	r23, 0xFF	; 255
 9a0:	8f 4f       	sbci	r24, 0xFF	; 255
 9a2:	9f 4f       	sbci	r25, 0xFF	; 255
 9a4:	08 95       	ret

000009a6 <sprintf>:
 9a6:	ae e0       	ldi	r26, 0x0E	; 14
 9a8:	b0 e0       	ldi	r27, 0x00	; 0
 9aa:	e9 ed       	ldi	r30, 0xD9	; 217
 9ac:	f4 e0       	ldi	r31, 0x04	; 4
 9ae:	0c 94 94 07 	jmp	0xf28	; 0xf28 <__prologue_saves__+0x1c>
 9b2:	0d 89       	ldd	r16, Y+21	; 0x15
 9b4:	1e 89       	ldd	r17, Y+22	; 0x16
 9b6:	86 e0       	ldi	r24, 0x06	; 6
 9b8:	8c 83       	std	Y+4, r24	; 0x04
 9ba:	1a 83       	std	Y+2, r17	; 0x02
 9bc:	09 83       	std	Y+1, r16	; 0x01
 9be:	8f ef       	ldi	r24, 0xFF	; 255
 9c0:	9f e7       	ldi	r25, 0x7F	; 127
 9c2:	9e 83       	std	Y+6, r25	; 0x06
 9c4:	8d 83       	std	Y+5, r24	; 0x05
 9c6:	ae 01       	movw	r20, r28
 9c8:	47 5e       	subi	r20, 0xE7	; 231
 9ca:	5f 4f       	sbci	r21, 0xFF	; 255
 9cc:	6f 89       	ldd	r22, Y+23	; 0x17
 9ce:	78 8d       	ldd	r23, Y+24	; 0x18
 9d0:	ce 01       	movw	r24, r28
 9d2:	01 96       	adiw	r24, 0x01	; 1
 9d4:	0e 94 f5 04 	call	0x9ea	; 0x9ea <vfprintf>
 9d8:	ef 81       	ldd	r30, Y+7	; 0x07
 9da:	f8 85       	ldd	r31, Y+8	; 0x08
 9dc:	e0 0f       	add	r30, r16
 9de:	f1 1f       	adc	r31, r17
 9e0:	10 82       	st	Z, r1
 9e2:	2e 96       	adiw	r28, 0x0e	; 14
 9e4:	e4 e0       	ldi	r30, 0x04	; 4
 9e6:	0c 94 b0 07 	jmp	0xf60	; 0xf60 <__epilogue_restores__+0x1c>

000009ea <vfprintf>:
 9ea:	ab e0       	ldi	r26, 0x0B	; 11
 9ec:	b0 e0       	ldi	r27, 0x00	; 0
 9ee:	eb ef       	ldi	r30, 0xFB	; 251
 9f0:	f4 e0       	ldi	r31, 0x04	; 4
 9f2:	0c 94 86 07 	jmp	0xf0c	; 0xf0c <__prologue_saves__>
 9f6:	6c 01       	movw	r12, r24
 9f8:	7b 01       	movw	r14, r22
 9fa:	8a 01       	movw	r16, r20
 9fc:	fc 01       	movw	r30, r24
 9fe:	17 82       	std	Z+7, r1	; 0x07
 a00:	16 82       	std	Z+6, r1	; 0x06
 a02:	83 81       	ldd	r24, Z+3	; 0x03
 a04:	81 ff       	sbrs	r24, 1
 a06:	cc c1       	rjmp	.+920    	; 0xda0 <vfprintf+0x3b6>
 a08:	ce 01       	movw	r24, r28
 a0a:	01 96       	adiw	r24, 0x01	; 1
 a0c:	3c 01       	movw	r6, r24
 a0e:	f6 01       	movw	r30, r12
 a10:	93 81       	ldd	r25, Z+3	; 0x03
 a12:	f7 01       	movw	r30, r14
 a14:	93 fd       	sbrc	r25, 3
 a16:	85 91       	lpm	r24, Z+
 a18:	93 ff       	sbrs	r25, 3
 a1a:	81 91       	ld	r24, Z+
 a1c:	7f 01       	movw	r14, r30
 a1e:	88 23       	and	r24, r24
 a20:	09 f4       	brne	.+2      	; 0xa24 <vfprintf+0x3a>
 a22:	ba c1       	rjmp	.+884    	; 0xd98 <vfprintf+0x3ae>
 a24:	85 32       	cpi	r24, 0x25	; 37
 a26:	39 f4       	brne	.+14     	; 0xa36 <vfprintf+0x4c>
 a28:	93 fd       	sbrc	r25, 3
 a2a:	85 91       	lpm	r24, Z+
 a2c:	93 ff       	sbrs	r25, 3
 a2e:	81 91       	ld	r24, Z+
 a30:	7f 01       	movw	r14, r30
 a32:	85 32       	cpi	r24, 0x25	; 37
 a34:	29 f4       	brne	.+10     	; 0xa40 <vfprintf+0x56>
 a36:	b6 01       	movw	r22, r12
 a38:	90 e0       	ldi	r25, 0x00	; 0
 a3a:	0e 94 ec 06 	call	0xdd8	; 0xdd8 <fputc>
 a3e:	e7 cf       	rjmp	.-50     	; 0xa0e <vfprintf+0x24>
 a40:	91 2c       	mov	r9, r1
 a42:	21 2c       	mov	r2, r1
 a44:	31 2c       	mov	r3, r1
 a46:	ff e1       	ldi	r31, 0x1F	; 31
 a48:	f3 15       	cp	r31, r3
 a4a:	d8 f0       	brcs	.+54     	; 0xa82 <vfprintf+0x98>
 a4c:	8b 32       	cpi	r24, 0x2B	; 43
 a4e:	79 f0       	breq	.+30     	; 0xa6e <vfprintf+0x84>
 a50:	38 f4       	brcc	.+14     	; 0xa60 <vfprintf+0x76>
 a52:	80 32       	cpi	r24, 0x20	; 32
 a54:	79 f0       	breq	.+30     	; 0xa74 <vfprintf+0x8a>
 a56:	83 32       	cpi	r24, 0x23	; 35
 a58:	a1 f4       	brne	.+40     	; 0xa82 <vfprintf+0x98>
 a5a:	23 2d       	mov	r18, r3
 a5c:	20 61       	ori	r18, 0x10	; 16
 a5e:	1d c0       	rjmp	.+58     	; 0xa9a <vfprintf+0xb0>
 a60:	8d 32       	cpi	r24, 0x2D	; 45
 a62:	61 f0       	breq	.+24     	; 0xa7c <vfprintf+0x92>
 a64:	80 33       	cpi	r24, 0x30	; 48
 a66:	69 f4       	brne	.+26     	; 0xa82 <vfprintf+0x98>
 a68:	23 2d       	mov	r18, r3
 a6a:	21 60       	ori	r18, 0x01	; 1
 a6c:	16 c0       	rjmp	.+44     	; 0xa9a <vfprintf+0xb0>
 a6e:	83 2d       	mov	r24, r3
 a70:	82 60       	ori	r24, 0x02	; 2
 a72:	38 2e       	mov	r3, r24
 a74:	e3 2d       	mov	r30, r3
 a76:	e4 60       	ori	r30, 0x04	; 4
 a78:	3e 2e       	mov	r3, r30
 a7a:	2a c0       	rjmp	.+84     	; 0xad0 <vfprintf+0xe6>
 a7c:	f3 2d       	mov	r31, r3
 a7e:	f8 60       	ori	r31, 0x08	; 8
 a80:	1d c0       	rjmp	.+58     	; 0xabc <vfprintf+0xd2>
 a82:	37 fc       	sbrc	r3, 7
 a84:	2d c0       	rjmp	.+90     	; 0xae0 <vfprintf+0xf6>
 a86:	20 ed       	ldi	r18, 0xD0	; 208
 a88:	28 0f       	add	r18, r24
 a8a:	2a 30       	cpi	r18, 0x0A	; 10
 a8c:	40 f0       	brcs	.+16     	; 0xa9e <vfprintf+0xb4>
 a8e:	8e 32       	cpi	r24, 0x2E	; 46
 a90:	b9 f4       	brne	.+46     	; 0xac0 <vfprintf+0xd6>
 a92:	36 fc       	sbrc	r3, 6
 a94:	81 c1       	rjmp	.+770    	; 0xd98 <vfprintf+0x3ae>
 a96:	23 2d       	mov	r18, r3
 a98:	20 64       	ori	r18, 0x40	; 64
 a9a:	32 2e       	mov	r3, r18
 a9c:	19 c0       	rjmp	.+50     	; 0xad0 <vfprintf+0xe6>
 a9e:	36 fe       	sbrs	r3, 6
 aa0:	06 c0       	rjmp	.+12     	; 0xaae <vfprintf+0xc4>
 aa2:	8a e0       	ldi	r24, 0x0A	; 10
 aa4:	98 9e       	mul	r9, r24
 aa6:	20 0d       	add	r18, r0
 aa8:	11 24       	eor	r1, r1
 aaa:	92 2e       	mov	r9, r18
 aac:	11 c0       	rjmp	.+34     	; 0xad0 <vfprintf+0xe6>
 aae:	ea e0       	ldi	r30, 0x0A	; 10
 ab0:	2e 9e       	mul	r2, r30
 ab2:	20 0d       	add	r18, r0
 ab4:	11 24       	eor	r1, r1
 ab6:	22 2e       	mov	r2, r18
 ab8:	f3 2d       	mov	r31, r3
 aba:	f0 62       	ori	r31, 0x20	; 32
 abc:	3f 2e       	mov	r3, r31
 abe:	08 c0       	rjmp	.+16     	; 0xad0 <vfprintf+0xe6>
 ac0:	8c 36       	cpi	r24, 0x6C	; 108
 ac2:	21 f4       	brne	.+8      	; 0xacc <vfprintf+0xe2>
 ac4:	83 2d       	mov	r24, r3
 ac6:	80 68       	ori	r24, 0x80	; 128
 ac8:	38 2e       	mov	r3, r24
 aca:	02 c0       	rjmp	.+4      	; 0xad0 <vfprintf+0xe6>
 acc:	88 36       	cpi	r24, 0x68	; 104
 ace:	41 f4       	brne	.+16     	; 0xae0 <vfprintf+0xf6>
 ad0:	f7 01       	movw	r30, r14
 ad2:	93 fd       	sbrc	r25, 3
 ad4:	85 91       	lpm	r24, Z+
 ad6:	93 ff       	sbrs	r25, 3
 ad8:	81 91       	ld	r24, Z+
 ada:	7f 01       	movw	r14, r30
 adc:	81 11       	cpse	r24, r1
 ade:	b3 cf       	rjmp	.-154    	; 0xa46 <vfprintf+0x5c>
 ae0:	98 2f       	mov	r25, r24
 ae2:	9f 7d       	andi	r25, 0xDF	; 223
 ae4:	95 54       	subi	r25, 0x45	; 69
 ae6:	93 30       	cpi	r25, 0x03	; 3
 ae8:	28 f4       	brcc	.+10     	; 0xaf4 <vfprintf+0x10a>
 aea:	0c 5f       	subi	r16, 0xFC	; 252
 aec:	1f 4f       	sbci	r17, 0xFF	; 255
 aee:	9f e3       	ldi	r25, 0x3F	; 63
 af0:	99 83       	std	Y+1, r25	; 0x01
 af2:	0d c0       	rjmp	.+26     	; 0xb0e <vfprintf+0x124>
 af4:	83 36       	cpi	r24, 0x63	; 99
 af6:	31 f0       	breq	.+12     	; 0xb04 <vfprintf+0x11a>
 af8:	83 37       	cpi	r24, 0x73	; 115
 afa:	71 f0       	breq	.+28     	; 0xb18 <vfprintf+0x12e>
 afc:	83 35       	cpi	r24, 0x53	; 83
 afe:	09 f0       	breq	.+2      	; 0xb02 <vfprintf+0x118>
 b00:	59 c0       	rjmp	.+178    	; 0xbb4 <vfprintf+0x1ca>
 b02:	21 c0       	rjmp	.+66     	; 0xb46 <vfprintf+0x15c>
 b04:	f8 01       	movw	r30, r16
 b06:	80 81       	ld	r24, Z
 b08:	89 83       	std	Y+1, r24	; 0x01
 b0a:	0e 5f       	subi	r16, 0xFE	; 254
 b0c:	1f 4f       	sbci	r17, 0xFF	; 255
 b0e:	88 24       	eor	r8, r8
 b10:	83 94       	inc	r8
 b12:	91 2c       	mov	r9, r1
 b14:	53 01       	movw	r10, r6
 b16:	13 c0       	rjmp	.+38     	; 0xb3e <vfprintf+0x154>
 b18:	28 01       	movw	r4, r16
 b1a:	f2 e0       	ldi	r31, 0x02	; 2
 b1c:	4f 0e       	add	r4, r31
 b1e:	51 1c       	adc	r5, r1
 b20:	f8 01       	movw	r30, r16
 b22:	a0 80       	ld	r10, Z
 b24:	b1 80       	ldd	r11, Z+1	; 0x01
 b26:	36 fe       	sbrs	r3, 6
 b28:	03 c0       	rjmp	.+6      	; 0xb30 <vfprintf+0x146>
 b2a:	69 2d       	mov	r22, r9
 b2c:	70 e0       	ldi	r23, 0x00	; 0
 b2e:	02 c0       	rjmp	.+4      	; 0xb34 <vfprintf+0x14a>
 b30:	6f ef       	ldi	r22, 0xFF	; 255
 b32:	7f ef       	ldi	r23, 0xFF	; 255
 b34:	c5 01       	movw	r24, r10
 b36:	0e 94 e1 06 	call	0xdc2	; 0xdc2 <strnlen>
 b3a:	4c 01       	movw	r8, r24
 b3c:	82 01       	movw	r16, r4
 b3e:	f3 2d       	mov	r31, r3
 b40:	ff 77       	andi	r31, 0x7F	; 127
 b42:	3f 2e       	mov	r3, r31
 b44:	16 c0       	rjmp	.+44     	; 0xb72 <vfprintf+0x188>
 b46:	28 01       	movw	r4, r16
 b48:	22 e0       	ldi	r18, 0x02	; 2
 b4a:	42 0e       	add	r4, r18
 b4c:	51 1c       	adc	r5, r1
 b4e:	f8 01       	movw	r30, r16
 b50:	a0 80       	ld	r10, Z
 b52:	b1 80       	ldd	r11, Z+1	; 0x01
 b54:	36 fe       	sbrs	r3, 6
 b56:	03 c0       	rjmp	.+6      	; 0xb5e <vfprintf+0x174>
 b58:	69 2d       	mov	r22, r9
 b5a:	70 e0       	ldi	r23, 0x00	; 0
 b5c:	02 c0       	rjmp	.+4      	; 0xb62 <vfprintf+0x178>
 b5e:	6f ef       	ldi	r22, 0xFF	; 255
 b60:	7f ef       	ldi	r23, 0xFF	; 255
 b62:	c5 01       	movw	r24, r10
 b64:	0e 94 d6 06 	call	0xdac	; 0xdac <strnlen_P>
 b68:	4c 01       	movw	r8, r24
 b6a:	f3 2d       	mov	r31, r3
 b6c:	f0 68       	ori	r31, 0x80	; 128
 b6e:	3f 2e       	mov	r3, r31
 b70:	82 01       	movw	r16, r4
 b72:	33 fc       	sbrc	r3, 3
 b74:	1b c0       	rjmp	.+54     	; 0xbac <vfprintf+0x1c2>
 b76:	82 2d       	mov	r24, r2
 b78:	90 e0       	ldi	r25, 0x00	; 0
 b7a:	88 16       	cp	r8, r24
 b7c:	99 06       	cpc	r9, r25
 b7e:	b0 f4       	brcc	.+44     	; 0xbac <vfprintf+0x1c2>
 b80:	b6 01       	movw	r22, r12
 b82:	80 e2       	ldi	r24, 0x20	; 32
 b84:	90 e0       	ldi	r25, 0x00	; 0
 b86:	0e 94 ec 06 	call	0xdd8	; 0xdd8 <fputc>
 b8a:	2a 94       	dec	r2
 b8c:	f4 cf       	rjmp	.-24     	; 0xb76 <vfprintf+0x18c>
 b8e:	f5 01       	movw	r30, r10
 b90:	37 fc       	sbrc	r3, 7
 b92:	85 91       	lpm	r24, Z+
 b94:	37 fe       	sbrs	r3, 7
 b96:	81 91       	ld	r24, Z+
 b98:	5f 01       	movw	r10, r30
 b9a:	b6 01       	movw	r22, r12
 b9c:	90 e0       	ldi	r25, 0x00	; 0
 b9e:	0e 94 ec 06 	call	0xdd8	; 0xdd8 <fputc>
 ba2:	21 10       	cpse	r2, r1
 ba4:	2a 94       	dec	r2
 ba6:	21 e0       	ldi	r18, 0x01	; 1
 ba8:	82 1a       	sub	r8, r18
 baa:	91 08       	sbc	r9, r1
 bac:	81 14       	cp	r8, r1
 bae:	91 04       	cpc	r9, r1
 bb0:	71 f7       	brne	.-36     	; 0xb8e <vfprintf+0x1a4>
 bb2:	e8 c0       	rjmp	.+464    	; 0xd84 <vfprintf+0x39a>
 bb4:	84 36       	cpi	r24, 0x64	; 100
 bb6:	11 f0       	breq	.+4      	; 0xbbc <vfprintf+0x1d2>
 bb8:	89 36       	cpi	r24, 0x69	; 105
 bba:	41 f5       	brne	.+80     	; 0xc0c <vfprintf+0x222>
 bbc:	f8 01       	movw	r30, r16
 bbe:	37 fe       	sbrs	r3, 7
 bc0:	07 c0       	rjmp	.+14     	; 0xbd0 <vfprintf+0x1e6>
 bc2:	60 81       	ld	r22, Z
 bc4:	71 81       	ldd	r23, Z+1	; 0x01
 bc6:	82 81       	ldd	r24, Z+2	; 0x02
 bc8:	93 81       	ldd	r25, Z+3	; 0x03
 bca:	0c 5f       	subi	r16, 0xFC	; 252
 bcc:	1f 4f       	sbci	r17, 0xFF	; 255
 bce:	08 c0       	rjmp	.+16     	; 0xbe0 <vfprintf+0x1f6>
 bd0:	60 81       	ld	r22, Z
 bd2:	71 81       	ldd	r23, Z+1	; 0x01
 bd4:	07 2e       	mov	r0, r23
 bd6:	00 0c       	add	r0, r0
 bd8:	88 0b       	sbc	r24, r24
 bda:	99 0b       	sbc	r25, r25
 bdc:	0e 5f       	subi	r16, 0xFE	; 254
 bde:	1f 4f       	sbci	r17, 0xFF	; 255
 be0:	f3 2d       	mov	r31, r3
 be2:	ff 76       	andi	r31, 0x6F	; 111
 be4:	3f 2e       	mov	r3, r31
 be6:	97 ff       	sbrs	r25, 7
 be8:	09 c0       	rjmp	.+18     	; 0xbfc <vfprintf+0x212>
 bea:	90 95       	com	r25
 bec:	80 95       	com	r24
 bee:	70 95       	com	r23
 bf0:	61 95       	neg	r22
 bf2:	7f 4f       	sbci	r23, 0xFF	; 255
 bf4:	8f 4f       	sbci	r24, 0xFF	; 255
 bf6:	9f 4f       	sbci	r25, 0xFF	; 255
 bf8:	f0 68       	ori	r31, 0x80	; 128
 bfa:	3f 2e       	mov	r3, r31
 bfc:	2a e0       	ldi	r18, 0x0A	; 10
 bfe:	30 e0       	ldi	r19, 0x00	; 0
 c00:	a3 01       	movw	r20, r6
 c02:	0e 94 28 07 	call	0xe50	; 0xe50 <__ultoa_invert>
 c06:	88 2e       	mov	r8, r24
 c08:	86 18       	sub	r8, r6
 c0a:	45 c0       	rjmp	.+138    	; 0xc96 <vfprintf+0x2ac>
 c0c:	85 37       	cpi	r24, 0x75	; 117
 c0e:	31 f4       	brne	.+12     	; 0xc1c <vfprintf+0x232>
 c10:	23 2d       	mov	r18, r3
 c12:	2f 7e       	andi	r18, 0xEF	; 239
 c14:	b2 2e       	mov	r11, r18
 c16:	2a e0       	ldi	r18, 0x0A	; 10
 c18:	30 e0       	ldi	r19, 0x00	; 0
 c1a:	25 c0       	rjmp	.+74     	; 0xc66 <vfprintf+0x27c>
 c1c:	93 2d       	mov	r25, r3
 c1e:	99 7f       	andi	r25, 0xF9	; 249
 c20:	b9 2e       	mov	r11, r25
 c22:	8f 36       	cpi	r24, 0x6F	; 111
 c24:	c1 f0       	breq	.+48     	; 0xc56 <vfprintf+0x26c>
 c26:	18 f4       	brcc	.+6      	; 0xc2e <vfprintf+0x244>
 c28:	88 35       	cpi	r24, 0x58	; 88
 c2a:	79 f0       	breq	.+30     	; 0xc4a <vfprintf+0x260>
 c2c:	b5 c0       	rjmp	.+362    	; 0xd98 <vfprintf+0x3ae>
 c2e:	80 37       	cpi	r24, 0x70	; 112
 c30:	19 f0       	breq	.+6      	; 0xc38 <vfprintf+0x24e>
 c32:	88 37       	cpi	r24, 0x78	; 120
 c34:	21 f0       	breq	.+8      	; 0xc3e <vfprintf+0x254>
 c36:	b0 c0       	rjmp	.+352    	; 0xd98 <vfprintf+0x3ae>
 c38:	e9 2f       	mov	r30, r25
 c3a:	e0 61       	ori	r30, 0x10	; 16
 c3c:	be 2e       	mov	r11, r30
 c3e:	b4 fe       	sbrs	r11, 4
 c40:	0d c0       	rjmp	.+26     	; 0xc5c <vfprintf+0x272>
 c42:	fb 2d       	mov	r31, r11
 c44:	f4 60       	ori	r31, 0x04	; 4
 c46:	bf 2e       	mov	r11, r31
 c48:	09 c0       	rjmp	.+18     	; 0xc5c <vfprintf+0x272>
 c4a:	34 fe       	sbrs	r3, 4
 c4c:	0a c0       	rjmp	.+20     	; 0xc62 <vfprintf+0x278>
 c4e:	29 2f       	mov	r18, r25
 c50:	26 60       	ori	r18, 0x06	; 6
 c52:	b2 2e       	mov	r11, r18
 c54:	06 c0       	rjmp	.+12     	; 0xc62 <vfprintf+0x278>
 c56:	28 e0       	ldi	r18, 0x08	; 8
 c58:	30 e0       	ldi	r19, 0x00	; 0
 c5a:	05 c0       	rjmp	.+10     	; 0xc66 <vfprintf+0x27c>
 c5c:	20 e1       	ldi	r18, 0x10	; 16
 c5e:	30 e0       	ldi	r19, 0x00	; 0
 c60:	02 c0       	rjmp	.+4      	; 0xc66 <vfprintf+0x27c>
 c62:	20 e1       	ldi	r18, 0x10	; 16
 c64:	32 e0       	ldi	r19, 0x02	; 2
 c66:	f8 01       	movw	r30, r16
 c68:	b7 fe       	sbrs	r11, 7
 c6a:	07 c0       	rjmp	.+14     	; 0xc7a <vfprintf+0x290>
 c6c:	60 81       	ld	r22, Z
 c6e:	71 81       	ldd	r23, Z+1	; 0x01
 c70:	82 81       	ldd	r24, Z+2	; 0x02
 c72:	93 81       	ldd	r25, Z+3	; 0x03
 c74:	0c 5f       	subi	r16, 0xFC	; 252
 c76:	1f 4f       	sbci	r17, 0xFF	; 255
 c78:	06 c0       	rjmp	.+12     	; 0xc86 <vfprintf+0x29c>
 c7a:	60 81       	ld	r22, Z
 c7c:	71 81       	ldd	r23, Z+1	; 0x01
 c7e:	80 e0       	ldi	r24, 0x00	; 0
 c80:	90 e0       	ldi	r25, 0x00	; 0
 c82:	0e 5f       	subi	r16, 0xFE	; 254
 c84:	1f 4f       	sbci	r17, 0xFF	; 255
 c86:	a3 01       	movw	r20, r6
 c88:	0e 94 28 07 	call	0xe50	; 0xe50 <__ultoa_invert>
 c8c:	88 2e       	mov	r8, r24
 c8e:	86 18       	sub	r8, r6
 c90:	fb 2d       	mov	r31, r11
 c92:	ff 77       	andi	r31, 0x7F	; 127
 c94:	3f 2e       	mov	r3, r31
 c96:	36 fe       	sbrs	r3, 6
 c98:	0d c0       	rjmp	.+26     	; 0xcb4 <vfprintf+0x2ca>
 c9a:	23 2d       	mov	r18, r3
 c9c:	2e 7f       	andi	r18, 0xFE	; 254
 c9e:	a2 2e       	mov	r10, r18
 ca0:	89 14       	cp	r8, r9
 ca2:	58 f4       	brcc	.+22     	; 0xcba <vfprintf+0x2d0>
 ca4:	34 fe       	sbrs	r3, 4
 ca6:	0b c0       	rjmp	.+22     	; 0xcbe <vfprintf+0x2d4>
 ca8:	32 fc       	sbrc	r3, 2
 caa:	09 c0       	rjmp	.+18     	; 0xcbe <vfprintf+0x2d4>
 cac:	83 2d       	mov	r24, r3
 cae:	8e 7e       	andi	r24, 0xEE	; 238
 cb0:	a8 2e       	mov	r10, r24
 cb2:	05 c0       	rjmp	.+10     	; 0xcbe <vfprintf+0x2d4>
 cb4:	b8 2c       	mov	r11, r8
 cb6:	a3 2c       	mov	r10, r3
 cb8:	03 c0       	rjmp	.+6      	; 0xcc0 <vfprintf+0x2d6>
 cba:	b8 2c       	mov	r11, r8
 cbc:	01 c0       	rjmp	.+2      	; 0xcc0 <vfprintf+0x2d6>
 cbe:	b9 2c       	mov	r11, r9
 cc0:	a4 fe       	sbrs	r10, 4
 cc2:	0f c0       	rjmp	.+30     	; 0xce2 <vfprintf+0x2f8>
 cc4:	fe 01       	movw	r30, r28
 cc6:	e8 0d       	add	r30, r8
 cc8:	f1 1d       	adc	r31, r1
 cca:	80 81       	ld	r24, Z
 ccc:	80 33       	cpi	r24, 0x30	; 48
 cce:	21 f4       	brne	.+8      	; 0xcd8 <vfprintf+0x2ee>
 cd0:	9a 2d       	mov	r25, r10
 cd2:	99 7e       	andi	r25, 0xE9	; 233
 cd4:	a9 2e       	mov	r10, r25
 cd6:	09 c0       	rjmp	.+18     	; 0xcea <vfprintf+0x300>
 cd8:	a2 fe       	sbrs	r10, 2
 cda:	06 c0       	rjmp	.+12     	; 0xce8 <vfprintf+0x2fe>
 cdc:	b3 94       	inc	r11
 cde:	b3 94       	inc	r11
 ce0:	04 c0       	rjmp	.+8      	; 0xcea <vfprintf+0x300>
 ce2:	8a 2d       	mov	r24, r10
 ce4:	86 78       	andi	r24, 0x86	; 134
 ce6:	09 f0       	breq	.+2      	; 0xcea <vfprintf+0x300>
 ce8:	b3 94       	inc	r11
 cea:	a3 fc       	sbrc	r10, 3
 cec:	11 c0       	rjmp	.+34     	; 0xd10 <vfprintf+0x326>
 cee:	a0 fe       	sbrs	r10, 0
 cf0:	06 c0       	rjmp	.+12     	; 0xcfe <vfprintf+0x314>
 cf2:	b2 14       	cp	r11, r2
 cf4:	88 f4       	brcc	.+34     	; 0xd18 <vfprintf+0x32e>
 cf6:	28 0c       	add	r2, r8
 cf8:	92 2c       	mov	r9, r2
 cfa:	9b 18       	sub	r9, r11
 cfc:	0e c0       	rjmp	.+28     	; 0xd1a <vfprintf+0x330>
 cfe:	b2 14       	cp	r11, r2
 d00:	60 f4       	brcc	.+24     	; 0xd1a <vfprintf+0x330>
 d02:	b6 01       	movw	r22, r12
 d04:	80 e2       	ldi	r24, 0x20	; 32
 d06:	90 e0       	ldi	r25, 0x00	; 0
 d08:	0e 94 ec 06 	call	0xdd8	; 0xdd8 <fputc>
 d0c:	b3 94       	inc	r11
 d0e:	f7 cf       	rjmp	.-18     	; 0xcfe <vfprintf+0x314>
 d10:	b2 14       	cp	r11, r2
 d12:	18 f4       	brcc	.+6      	; 0xd1a <vfprintf+0x330>
 d14:	2b 18       	sub	r2, r11
 d16:	02 c0       	rjmp	.+4      	; 0xd1c <vfprintf+0x332>
 d18:	98 2c       	mov	r9, r8
 d1a:	21 2c       	mov	r2, r1
 d1c:	a4 fe       	sbrs	r10, 4
 d1e:	10 c0       	rjmp	.+32     	; 0xd40 <vfprintf+0x356>
 d20:	b6 01       	movw	r22, r12
 d22:	80 e3       	ldi	r24, 0x30	; 48
 d24:	90 e0       	ldi	r25, 0x00	; 0
 d26:	0e 94 ec 06 	call	0xdd8	; 0xdd8 <fputc>
 d2a:	a2 fe       	sbrs	r10, 2
 d2c:	17 c0       	rjmp	.+46     	; 0xd5c <vfprintf+0x372>
 d2e:	a1 fc       	sbrc	r10, 1
 d30:	03 c0       	rjmp	.+6      	; 0xd38 <vfprintf+0x34e>
 d32:	88 e7       	ldi	r24, 0x78	; 120
 d34:	90 e0       	ldi	r25, 0x00	; 0
 d36:	02 c0       	rjmp	.+4      	; 0xd3c <vfprintf+0x352>
 d38:	88 e5       	ldi	r24, 0x58	; 88
 d3a:	90 e0       	ldi	r25, 0x00	; 0
 d3c:	b6 01       	movw	r22, r12
 d3e:	0c c0       	rjmp	.+24     	; 0xd58 <vfprintf+0x36e>
 d40:	8a 2d       	mov	r24, r10
 d42:	86 78       	andi	r24, 0x86	; 134
 d44:	59 f0       	breq	.+22     	; 0xd5c <vfprintf+0x372>
 d46:	a1 fe       	sbrs	r10, 1
 d48:	02 c0       	rjmp	.+4      	; 0xd4e <vfprintf+0x364>
 d4a:	8b e2       	ldi	r24, 0x2B	; 43
 d4c:	01 c0       	rjmp	.+2      	; 0xd50 <vfprintf+0x366>
 d4e:	80 e2       	ldi	r24, 0x20	; 32
 d50:	a7 fc       	sbrc	r10, 7
 d52:	8d e2       	ldi	r24, 0x2D	; 45
 d54:	b6 01       	movw	r22, r12
 d56:	90 e0       	ldi	r25, 0x00	; 0
 d58:	0e 94 ec 06 	call	0xdd8	; 0xdd8 <fputc>
 d5c:	89 14       	cp	r8, r9
 d5e:	38 f4       	brcc	.+14     	; 0xd6e <vfprintf+0x384>
 d60:	b6 01       	movw	r22, r12
 d62:	80 e3       	ldi	r24, 0x30	; 48
 d64:	90 e0       	ldi	r25, 0x00	; 0
 d66:	0e 94 ec 06 	call	0xdd8	; 0xdd8 <fputc>
 d6a:	9a 94       	dec	r9
 d6c:	f7 cf       	rjmp	.-18     	; 0xd5c <vfprintf+0x372>
 d6e:	8a 94       	dec	r8
 d70:	f3 01       	movw	r30, r6
 d72:	e8 0d       	add	r30, r8
 d74:	f1 1d       	adc	r31, r1
 d76:	80 81       	ld	r24, Z
 d78:	b6 01       	movw	r22, r12
 d7a:	90 e0       	ldi	r25, 0x00	; 0
 d7c:	0e 94 ec 06 	call	0xdd8	; 0xdd8 <fputc>
 d80:	81 10       	cpse	r8, r1
 d82:	f5 cf       	rjmp	.-22     	; 0xd6e <vfprintf+0x384>
 d84:	22 20       	and	r2, r2
 d86:	09 f4       	brne	.+2      	; 0xd8a <vfprintf+0x3a0>
 d88:	42 ce       	rjmp	.-892    	; 0xa0e <vfprintf+0x24>
 d8a:	b6 01       	movw	r22, r12
 d8c:	80 e2       	ldi	r24, 0x20	; 32
 d8e:	90 e0       	ldi	r25, 0x00	; 0
 d90:	0e 94 ec 06 	call	0xdd8	; 0xdd8 <fputc>
 d94:	2a 94       	dec	r2
 d96:	f6 cf       	rjmp	.-20     	; 0xd84 <vfprintf+0x39a>
 d98:	f6 01       	movw	r30, r12
 d9a:	86 81       	ldd	r24, Z+6	; 0x06
 d9c:	97 81       	ldd	r25, Z+7	; 0x07
 d9e:	02 c0       	rjmp	.+4      	; 0xda4 <vfprintf+0x3ba>
 da0:	8f ef       	ldi	r24, 0xFF	; 255
 da2:	9f ef       	ldi	r25, 0xFF	; 255
 da4:	2b 96       	adiw	r28, 0x0b	; 11
 da6:	e2 e1       	ldi	r30, 0x12	; 18
 da8:	0c 94 a2 07 	jmp	0xf44	; 0xf44 <__epilogue_restores__>

00000dac <strnlen_P>:
 dac:	fc 01       	movw	r30, r24
 dae:	05 90       	lpm	r0, Z+
 db0:	61 50       	subi	r22, 0x01	; 1
 db2:	70 40       	sbci	r23, 0x00	; 0
 db4:	01 10       	cpse	r0, r1
 db6:	d8 f7       	brcc	.-10     	; 0xdae <strnlen_P+0x2>
 db8:	80 95       	com	r24
 dba:	90 95       	com	r25
 dbc:	8e 0f       	add	r24, r30
 dbe:	9f 1f       	adc	r25, r31
 dc0:	08 95       	ret

00000dc2 <strnlen>:
 dc2:	fc 01       	movw	r30, r24
 dc4:	61 50       	subi	r22, 0x01	; 1
 dc6:	70 40       	sbci	r23, 0x00	; 0
 dc8:	01 90       	ld	r0, Z+
 dca:	01 10       	cpse	r0, r1
 dcc:	d8 f7       	brcc	.-10     	; 0xdc4 <strnlen+0x2>
 dce:	80 95       	com	r24
 dd0:	90 95       	com	r25
 dd2:	8e 0f       	add	r24, r30
 dd4:	9f 1f       	adc	r25, r31
 dd6:	08 95       	ret

00000dd8 <fputc>:
 dd8:	0f 93       	push	r16
 dda:	1f 93       	push	r17
 ddc:	cf 93       	push	r28
 dde:	df 93       	push	r29
 de0:	fb 01       	movw	r30, r22
 de2:	23 81       	ldd	r18, Z+3	; 0x03
 de4:	21 fd       	sbrc	r18, 1
 de6:	03 c0       	rjmp	.+6      	; 0xdee <fputc+0x16>
 de8:	8f ef       	ldi	r24, 0xFF	; 255
 dea:	9f ef       	ldi	r25, 0xFF	; 255
 dec:	2c c0       	rjmp	.+88     	; 0xe46 <fputc+0x6e>
 dee:	22 ff       	sbrs	r18, 2
 df0:	16 c0       	rjmp	.+44     	; 0xe1e <fputc+0x46>
 df2:	46 81       	ldd	r20, Z+6	; 0x06
 df4:	57 81       	ldd	r21, Z+7	; 0x07
 df6:	24 81       	ldd	r18, Z+4	; 0x04
 df8:	35 81       	ldd	r19, Z+5	; 0x05
 dfa:	42 17       	cp	r20, r18
 dfc:	53 07       	cpc	r21, r19
 dfe:	44 f4       	brge	.+16     	; 0xe10 <fputc+0x38>
 e00:	a0 81       	ld	r26, Z
 e02:	b1 81       	ldd	r27, Z+1	; 0x01
 e04:	9d 01       	movw	r18, r26
 e06:	2f 5f       	subi	r18, 0xFF	; 255
 e08:	3f 4f       	sbci	r19, 0xFF	; 255
 e0a:	31 83       	std	Z+1, r19	; 0x01
 e0c:	20 83       	st	Z, r18
 e0e:	8c 93       	st	X, r24
 e10:	26 81       	ldd	r18, Z+6	; 0x06
 e12:	37 81       	ldd	r19, Z+7	; 0x07
 e14:	2f 5f       	subi	r18, 0xFF	; 255
 e16:	3f 4f       	sbci	r19, 0xFF	; 255
 e18:	37 83       	std	Z+7, r19	; 0x07
 e1a:	26 83       	std	Z+6, r18	; 0x06
 e1c:	14 c0       	rjmp	.+40     	; 0xe46 <fputc+0x6e>
 e1e:	8b 01       	movw	r16, r22
 e20:	ec 01       	movw	r28, r24
 e22:	fb 01       	movw	r30, r22
 e24:	00 84       	ldd	r0, Z+8	; 0x08
 e26:	f1 85       	ldd	r31, Z+9	; 0x09
 e28:	e0 2d       	mov	r30, r0
 e2a:	09 95       	icall
 e2c:	89 2b       	or	r24, r25
 e2e:	e1 f6       	brne	.-72     	; 0xde8 <fputc+0x10>
 e30:	d8 01       	movw	r26, r16
 e32:	16 96       	adiw	r26, 0x06	; 6
 e34:	8d 91       	ld	r24, X+
 e36:	9c 91       	ld	r25, X
 e38:	17 97       	sbiw	r26, 0x07	; 7
 e3a:	01 96       	adiw	r24, 0x01	; 1
 e3c:	17 96       	adiw	r26, 0x07	; 7
 e3e:	9c 93       	st	X, r25
 e40:	8e 93       	st	-X, r24
 e42:	16 97       	sbiw	r26, 0x06	; 6
 e44:	ce 01       	movw	r24, r28
 e46:	df 91       	pop	r29
 e48:	cf 91       	pop	r28
 e4a:	1f 91       	pop	r17
 e4c:	0f 91       	pop	r16
 e4e:	08 95       	ret

00000e50 <__ultoa_invert>:
 e50:	fa 01       	movw	r30, r20
 e52:	aa 27       	eor	r26, r26
 e54:	28 30       	cpi	r18, 0x08	; 8
 e56:	51 f1       	breq	.+84     	; 0xeac <__ultoa_invert+0x5c>
 e58:	20 31       	cpi	r18, 0x10	; 16
 e5a:	81 f1       	breq	.+96     	; 0xebc <__ultoa_invert+0x6c>
 e5c:	e8 94       	clt
 e5e:	6f 93       	push	r22
 e60:	6e 7f       	andi	r22, 0xFE	; 254
 e62:	6e 5f       	subi	r22, 0xFE	; 254
 e64:	7f 4f       	sbci	r23, 0xFF	; 255
 e66:	8f 4f       	sbci	r24, 0xFF	; 255
 e68:	9f 4f       	sbci	r25, 0xFF	; 255
 e6a:	af 4f       	sbci	r26, 0xFF	; 255
 e6c:	b1 e0       	ldi	r27, 0x01	; 1
 e6e:	3e d0       	rcall	.+124    	; 0xeec <__ultoa_invert+0x9c>
 e70:	b4 e0       	ldi	r27, 0x04	; 4
 e72:	3c d0       	rcall	.+120    	; 0xeec <__ultoa_invert+0x9c>
 e74:	67 0f       	add	r22, r23
 e76:	78 1f       	adc	r23, r24
 e78:	89 1f       	adc	r24, r25
 e7a:	9a 1f       	adc	r25, r26
 e7c:	a1 1d       	adc	r26, r1
 e7e:	68 0f       	add	r22, r24
 e80:	79 1f       	adc	r23, r25
 e82:	8a 1f       	adc	r24, r26
 e84:	91 1d       	adc	r25, r1
 e86:	a1 1d       	adc	r26, r1
 e88:	6a 0f       	add	r22, r26
 e8a:	71 1d       	adc	r23, r1
 e8c:	81 1d       	adc	r24, r1
 e8e:	91 1d       	adc	r25, r1
 e90:	a1 1d       	adc	r26, r1
 e92:	20 d0       	rcall	.+64     	; 0xed4 <__ultoa_invert+0x84>
 e94:	09 f4       	brne	.+2      	; 0xe98 <__ultoa_invert+0x48>
 e96:	68 94       	set
 e98:	3f 91       	pop	r19
 e9a:	2a e0       	ldi	r18, 0x0A	; 10
 e9c:	26 9f       	mul	r18, r22
 e9e:	11 24       	eor	r1, r1
 ea0:	30 19       	sub	r19, r0
 ea2:	30 5d       	subi	r19, 0xD0	; 208
 ea4:	31 93       	st	Z+, r19
 ea6:	de f6       	brtc	.-74     	; 0xe5e <__ultoa_invert+0xe>
 ea8:	cf 01       	movw	r24, r30
 eaa:	08 95       	ret
 eac:	46 2f       	mov	r20, r22
 eae:	47 70       	andi	r20, 0x07	; 7
 eb0:	40 5d       	subi	r20, 0xD0	; 208
 eb2:	41 93       	st	Z+, r20
 eb4:	b3 e0       	ldi	r27, 0x03	; 3
 eb6:	0f d0       	rcall	.+30     	; 0xed6 <__ultoa_invert+0x86>
 eb8:	c9 f7       	brne	.-14     	; 0xeac <__ultoa_invert+0x5c>
 eba:	f6 cf       	rjmp	.-20     	; 0xea8 <__ultoa_invert+0x58>
 ebc:	46 2f       	mov	r20, r22
 ebe:	4f 70       	andi	r20, 0x0F	; 15
 ec0:	40 5d       	subi	r20, 0xD0	; 208
 ec2:	4a 33       	cpi	r20, 0x3A	; 58
 ec4:	18 f0       	brcs	.+6      	; 0xecc <__ultoa_invert+0x7c>
 ec6:	49 5d       	subi	r20, 0xD9	; 217
 ec8:	31 fd       	sbrc	r19, 1
 eca:	40 52       	subi	r20, 0x20	; 32
 ecc:	41 93       	st	Z+, r20
 ece:	02 d0       	rcall	.+4      	; 0xed4 <__ultoa_invert+0x84>
 ed0:	a9 f7       	brne	.-22     	; 0xebc <__ultoa_invert+0x6c>
 ed2:	ea cf       	rjmp	.-44     	; 0xea8 <__ultoa_invert+0x58>
 ed4:	b4 e0       	ldi	r27, 0x04	; 4
 ed6:	a6 95       	lsr	r26
 ed8:	97 95       	ror	r25
 eda:	87 95       	ror	r24
 edc:	77 95       	ror	r23
 ede:	67 95       	ror	r22
 ee0:	ba 95       	dec	r27
 ee2:	c9 f7       	brne	.-14     	; 0xed6 <__ultoa_invert+0x86>
 ee4:	00 97       	sbiw	r24, 0x00	; 0
 ee6:	61 05       	cpc	r22, r1
 ee8:	71 05       	cpc	r23, r1
 eea:	08 95       	ret
 eec:	9b 01       	movw	r18, r22
 eee:	ac 01       	movw	r20, r24
 ef0:	0a 2e       	mov	r0, r26
 ef2:	06 94       	lsr	r0
 ef4:	57 95       	ror	r21
 ef6:	47 95       	ror	r20
 ef8:	37 95       	ror	r19
 efa:	27 95       	ror	r18
 efc:	ba 95       	dec	r27
 efe:	c9 f7       	brne	.-14     	; 0xef2 <__ultoa_invert+0xa2>
 f00:	62 0f       	add	r22, r18
 f02:	73 1f       	adc	r23, r19
 f04:	84 1f       	adc	r24, r20
 f06:	95 1f       	adc	r25, r21
 f08:	a0 1d       	adc	r26, r0
 f0a:	08 95       	ret

00000f0c <__prologue_saves__>:
 f0c:	2f 92       	push	r2
 f0e:	3f 92       	push	r3
 f10:	4f 92       	push	r4
 f12:	5f 92       	push	r5
 f14:	6f 92       	push	r6
 f16:	7f 92       	push	r7
 f18:	8f 92       	push	r8
 f1a:	9f 92       	push	r9
 f1c:	af 92       	push	r10
 f1e:	bf 92       	push	r11
 f20:	cf 92       	push	r12
 f22:	df 92       	push	r13
 f24:	ef 92       	push	r14
 f26:	ff 92       	push	r15
 f28:	0f 93       	push	r16
 f2a:	1f 93       	push	r17
 f2c:	cf 93       	push	r28
 f2e:	df 93       	push	r29
 f30:	cd b7       	in	r28, 0x3d	; 61
 f32:	de b7       	in	r29, 0x3e	; 62
 f34:	ca 1b       	sub	r28, r26
 f36:	db 0b       	sbc	r29, r27
 f38:	0f b6       	in	r0, 0x3f	; 63
 f3a:	f8 94       	cli
 f3c:	de bf       	out	0x3e, r29	; 62
 f3e:	0f be       	out	0x3f, r0	; 63
 f40:	cd bf       	out	0x3d, r28	; 61
 f42:	09 94       	ijmp

00000f44 <__epilogue_restores__>:
 f44:	2a 88       	ldd	r2, Y+18	; 0x12
 f46:	39 88       	ldd	r3, Y+17	; 0x11
 f48:	48 88       	ldd	r4, Y+16	; 0x10
 f4a:	5f 84       	ldd	r5, Y+15	; 0x0f
 f4c:	6e 84       	ldd	r6, Y+14	; 0x0e
 f4e:	7d 84       	ldd	r7, Y+13	; 0x0d
 f50:	8c 84       	ldd	r8, Y+12	; 0x0c
 f52:	9b 84       	ldd	r9, Y+11	; 0x0b
 f54:	aa 84       	ldd	r10, Y+10	; 0x0a
 f56:	b9 84       	ldd	r11, Y+9	; 0x09
 f58:	c8 84       	ldd	r12, Y+8	; 0x08
 f5a:	df 80       	ldd	r13, Y+7	; 0x07
 f5c:	ee 80       	ldd	r14, Y+6	; 0x06
 f5e:	fd 80       	ldd	r15, Y+5	; 0x05
 f60:	0c 81       	ldd	r16, Y+4	; 0x04
 f62:	1b 81       	ldd	r17, Y+3	; 0x03
 f64:	aa 81       	ldd	r26, Y+2	; 0x02
 f66:	b9 81       	ldd	r27, Y+1	; 0x01
 f68:	ce 0f       	add	r28, r30
 f6a:	d1 1d       	adc	r29, r1
 f6c:	0f b6       	in	r0, 0x3f	; 63
 f6e:	f8 94       	cli
 f70:	de bf       	out	0x3e, r29	; 62
 f72:	0f be       	out	0x3f, r0	; 63
 f74:	cd bf       	out	0x3d, r28	; 61
 f76:	ed 01       	movw	r28, r26
 f78:	08 95       	ret

00000f7a <_exit>:
 f7a:	f8 94       	cli

00000f7c <__stop_program>:
 f7c:	ff cf       	rjmp	.-2      	; 0xf7c <__stop_program>
